Archive member included because of file (symbol)

C:/Program Files/Microchip/MPLAB C32/bin/../lib/gcc/pic32mx/3.4.4/size\libgcc.a(_udivdi3.o)
                              Objects Files\Tick.o (__udivdi3)
C:/Program Files/Microchip/MPLAB C32/bin/../lib/gcc/pic32mx/3.4.4/../../../../pic32mx/lib/size\libc.a(memcmp.o)
                              Objects Files\tasks.o (memcmp)
C:/Program Files/Microchip/MPLAB C32/bin/../lib/gcc/pic32mx/3.4.4/../../../../pic32mx/lib/size\libc.a(memcpy.o)
                              Objects Files\queue.o (memcpy)
C:/Program Files/Microchip/MPLAB C32/bin/../lib/gcc/pic32mx/3.4.4/../../../../pic32mx/lib/size\libc.a(memset.o)
                              Objects Files\tasks.o (memset)
C:/Program Files/Microchip/MPLAB C32/bin/../lib/gcc/pic32mx/3.4.4/../../../../pic32mx/lib/size\libc.a(strcmp.o)
                              Objects Files\WFConsole.o (strcmp)
C:/Program Files/Microchip/MPLAB C32/bin/../lib/gcc/pic32mx/3.4.4/../../../../pic32mx/lib/size\libc.a(strcpy.o)
                              Objects Files\TCPIP_init.o (strcpy)
C:/Program Files/Microchip/MPLAB C32/bin/../lib/gcc/pic32mx/3.4.4/../../../../pic32mx/lib/size\libc.a(strlen.o)
                              Objects Files\WF_Config.o (strlen)
C:/Program Files/Microchip/MPLAB C32/bin/../lib/gcc/pic32mx/3.4.4/../../../../pic32mx/lib/size\libc.a(general-exception.o)
                              C:/Program Files/Microchip/MPLAB C32/bin/../lib/gcc/pic32mx/3.4.4/../../../../pic32mx/lib/size/crt0.o (_general_exception_context)
C:/Program Files/Microchip/MPLAB C32/bin/../lib/gcc/pic32mx/3.4.4/../../../../pic32mx/lib/size\libc.a(strncpy.o)
                              Objects Files\tasks.o (strncpy)
C:/Program Files/Microchip/MPLAB C32/bin/../lib/gcc/pic32mx/3.4.4/../../../../pic32mx/lib/size\libc.a(exit.o)
                              C:/Program Files/Microchip/MPLAB C32/bin/../lib/gcc/pic32mx/3.4.4/../../../../pic32mx/lib/size/crt0.o (exit)
C:/Program Files/Microchip/MPLAB C32/bin/../lib/gcc/pic32mx/3.4.4/../../../../pic32mx/lib/size\libc.a(ctype.o)
                              Objects Files\WFConsole.o (_ctype)
C:/Program Files/Microchip/MPLAB C32/bin/../lib/gcc/pic32mx/3.4.4/../../../../pic32mx/lib/size\libc.a(ctypef.o)
                              Objects Files\WFConsoleMsgHandler.o (tolower)
C:/Program Files/Microchip/MPLAB C32/bin/../lib/gcc/pic32mx/3.4.4/../../../../pic32mx/lib/size\libc.a(atol.o)
                              Objects Files\HTTP2.o (atol)
C:/Program Files/Microchip/MPLAB C32/bin/../lib/gcc/pic32mx/3.4.4/../../../../pic32mx/lib/size\libc.a(strtol.o)
                              C:/Program Files/Microchip/MPLAB C32/bin/../lib/gcc/pic32mx/3.4.4/../../../../pic32mx/lib/size\libc.a(atol.o) (strtol)
C:/Program Files/Microchip/MPLAB C32/bin/../lib/gcc/pic32mx/3.4.4/../../../../pic32mx/lib/size\libc.a(sprintf.o)
                              Objects Files\Task_DebugUART.o (sprintf)
C:/Program Files/Microchip/MPLAB C32/bin/../lib/gcc/pic32mx/3.4.4/../../../../pic32mx/lib/size\libc.a(__vsnprintf.o)
                              C:/Program Files/Microchip/MPLAB C32/bin/../lib/gcc/pic32mx/3.4.4/../../../../pic32mx/lib/size\libc.a(sprintf.o) (__vsnprintf)
C:/Program Files/Microchip/MPLAB C32/bin/../lib/gcc/pic32mx/3.4.4/../../../../pic32mx/lib/size\libc.a(isprintf.o)
                              Objects Files\App_HTTP_custom.o (_isprintf)
C:/Program Files/Microchip/MPLAB C32/bin/../lib/gcc/pic32mx/3.4.4/../../../../pic32mx/lib/size\libc.a(__ivsnprintf.o)
                              C:/Program Files/Microchip/MPLAB C32/bin/../lib/gcc/pic32mx/3.4.4/../../../../pic32mx/lib/size\libc.a(isprintf.o) (__ivsnprintf)
C:/Program Files/Microchip/MPLAB C32/bin/../lib/gcc/pic32mx/3.4.4/../../../../pic32mx/lib/size\libc.a(default-bootstrap-exception-handler.o)
                              C:/Program Files/Microchip/MPLAB C32/bin/../lib/gcc/pic32mx/3.4.4/../../../../pic32mx/lib/size/crt0.o (_bootstrap_exception_handler)
C:/Program Files/Microchip/MPLAB C32/bin/../lib/gcc/pic32mx/3.4.4/../../../../pic32mx/lib/size\libc.a(default-on-reset.o)
                              C:/Program Files/Microchip/MPLAB C32/bin/../lib/gcc/pic32mx/3.4.4/../../../../pic32mx/lib/size/crt0.o (_on_reset)
C:/Program Files/Microchip/MPLAB C32/bin/../lib/gcc/pic32mx/3.4.4/../../../../pic32mx/lib/size\libc.a(default-on-bootstrap.o)
                              C:/Program Files/Microchip/MPLAB C32/bin/../lib/gcc/pic32mx/3.4.4/../../../../pic32mx/lib/size/crt0.o (_on_bootstrap)
C:/Program Files/Microchip/MPLAB C32/bin/../lib/gcc/pic32mx/3.4.4/../../../../pic32mx/lib/size\libc.a(default-nmi-handler.o)
                              C:/Program Files/Microchip/MPLAB C32/bin/../lib/gcc/pic32mx/3.4.4/../../../../pic32mx/lib/size/crt0.o (_nmi_handler)
C:/Program Files/Microchip/MPLAB C32/bin/../lib/gcc/pic32mx/3.4.4/../../../../pic32mx/lib/size\libc.a(_exit.o)
                              C:/Program Files/Microchip/MPLAB C32/bin/../lib/gcc/pic32mx/3.4.4/../../../../pic32mx/lib/size\libc.a(exit.o) (_exit)
C:/Program Files/Microchip/MPLAB C32/bin/../lib/gcc/pic32mx/3.4.4/../../../../pic32mx/lib/size\libc.a(errno.o)
                              C:/Program Files/Microchip/MPLAB C32/bin/../lib/gcc/pic32mx/3.4.4/../../../../pic32mx/lib/size\libc.a(strtol.o) (errno)
C:/Program Files/Microchip/MPLAB C32/bin/../lib/gcc/pic32mx/3.4.4/../../../../pic32mx/lib/size\libc.a(_doprnt.o)
                              C:/Program Files/Microchip/MPLAB C32/bin/../lib/gcc/pic32mx/3.4.4/../../../../pic32mx/lib/size\libc.a(__vsnprintf.o) (vfprintf)
C:/Program Files/Microchip/MPLAB C32/bin/../lib/gcc/pic32mx/3.4.4/../../../../pic32mx/lib/size\libc.a(_iobdata.o)
                              C:/Program Files/Microchip/MPLAB C32/bin/../lib/gcc/pic32mx/3.4.4/../../../../pic32mx/lib/size\libc.a(_doprnt.o) (_libc_data)
C:/Program Files/Microchip/MPLAB C32/bin/../lib/gcc/pic32mx/3.4.4/../../../../pic32mx/lib/size\libc.a(_iobfuncs.o)
                              C:/Program Files/Microchip/MPLAB C32/bin/../lib/gcc/pic32mx/3.4.4/../../../../pic32mx/lib/size\libc.a(_iobdata.o) (_filbuf_simple)
C:/Program Files/Microchip/MPLAB C32/bin/../lib/gcc/pic32mx/3.4.4/../../../../pic32mx/lib/size\libc.a(_iobstring.o)
                              C:/Program Files/Microchip/MPLAB C32/bin/../lib/gcc/pic32mx/3.4.4/../../../../pic32mx/lib/size\libc.a(__vsnprintf.o) (_io_strfuncs)
C:/Program Files/Microchip/MPLAB C32/bin/../lib/gcc/pic32mx/3.4.4/../../../../pic32mx/lib/size\libc.a(fputc.o)
                              C:/Program Files/Microchip/MPLAB C32/bin/../lib/gcc/pic32mx/3.4.4/../../../../pic32mx/lib/size\libc.a(_doprnt.o) (fputc)
C:/Program Files/Microchip/MPLAB C32/bin/../lib/gcc/pic32mx/3.4.4/../../../../pic32mx/lib/size\libc.a(_idoprnt.o)
                              C:/Program Files/Microchip/MPLAB C32/bin/../lib/gcc/pic32mx/3.4.4/../../../../pic32mx/lib/size\libc.a(__ivsnprintf.o) (_ivfprintf)
C:/Program Files/Microchip/MPLAB C32/bin/../lib/gcc/pic32mx/3.4.4/../../../../pic32mx/lib/size\libc.a(stubs.o)
                              C:/Program Files/Microchip/MPLAB C32/bin/../lib/gcc/pic32mx/3.4.4/../../../../pic32mx/lib/size\libc.a(_doprnt.o) (pthread_mutex_lock)
C:/Program Files/Microchip/MPLAB C32/bin/../lib/gcc/pic32mx/3.4.4/../../../../pic32mx/lib/size\libc.a(_mon_getc.o)
                              C:/Program Files/Microchip/MPLAB C32/bin/../lib/gcc/pic32mx/3.4.4/../../../../pic32mx/lib/size\libc.a(_iobfuncs.o) (_mon_getc)
C:/Program Files/Microchip/MPLAB C32/bin/../lib/gcc/pic32mx/3.4.4/../../../../pic32mx/lib/size\libc.a(_mon_write.o)
                              C:/Program Files/Microchip/MPLAB C32/bin/../lib/gcc/pic32mx/3.4.4/../../../../pic32mx/lib/size\libc.a(_iobfuncs.o) (_mon_write)
C:/Program Files/Microchip/MPLAB C32/bin/../lib/gcc/pic32mx/3.4.4/../../../../pic32mx/lib/size\libc.a(fullexit.o)
                              C:/Program Files/Microchip/MPLAB C32/bin/../lib/gcc/pic32mx/3.4.4/../../../../pic32mx/lib/size\libc.a(_doprnt.o) (__exfun_mx)
C:/Program Files/Microchip/MPLAB C32/bin/../lib/gcc/pic32mx/3.4.4/../../../../pic32mx/lib/size\libc.a(_mon_putc.o)
                              C:/Program Files/Microchip/MPLAB C32/bin/../lib/gcc/pic32mx/3.4.4/../../../../pic32mx/lib/size\libc.a(_mon_write.o) (_mon_putc)
C:/Program Files/Microchip/MPLAB C32/bin/../lib/gcc/pic32mx/3.4.4/../../../../pic32mx/lib/size\libm.a(mod32.o)
                              C:/Program Files/Microchip/MPLAB C32/bin/../lib/gcc/pic32mx/3.4.4/../../../../pic32mx/lib/size\libc.a(_doprnt.o) (modf)
C:/Program Files/Microchip/MPLAB C32/bin/../lib/gcc/pic32mx/3.4.4/../../../../pic32mx/lib/size\libm.a(dp32.o)
                              Objects Files\App_functions.o (dpsub)
C:/Program Files/Microchip/MPLAB C32/bin/../lib/gcc/pic32mx/3.4.4/../../../../pic32mx/lib/size\libm.a(fp32.o)
                              Objects Files\App_functions.o (fpsub)
C:/Program Files/Microchip/MPLAB C32/bin/../lib/gcc/pic32mx/3.4.4/../../../../pic32mx/lib/size\libmchp_peripheral_32MX795F512L.a(soft_reset_lib.o)
                              Objects Files\WFConsoleMsgHandler.o (SoftReset)
C:/Program Files/Microchip/MPLAB C32/bin/../lib/gcc/pic32mx/3.4.4/../../../../pic32mx/lib/size\libmchp_peripheral_32MX795F512L.a(pcache.o)
                              Objects Files\TCPIP_init.o (CheKseg0CacheOn)
C:/Program Files/Microchip/MPLAB C32/bin/../lib/gcc/pic32mx/3.4.4/../../../../pic32mx/lib/size\libmchp_peripheral_32MX795F512L.a(set_core_sw0_leg_lib.o)
                              Objects Files\port.o (SetCoreSW0)
C:/Program Files/Microchip/MPLAB C32/bin/../lib/gcc/pic32mx/3.4.4/../../../../pic32mx/lib/size\libmchp_peripheral_32MX795F512L.a(int_disable_interrupts_lib.o)
                              Objects Files\TCPIP_init.o (INTDisableInterrupts)
C:/Program Files/Microchip/MPLAB C32/bin/../lib/gcc/pic32mx/3.4.4/../../../../pic32mx/lib/size\libmchp_peripheral_32MX795F512L.a(int_restore_interrupts_lib.o)
                              Objects Files\TCPIP_init.o (INTRestoreInterrupts)
C:/Program Files/Microchip/MPLAB C32/bin/../lib/gcc/pic32mx/3.4.4/../../../../pic32mx/lib/size\libmchp_peripheral_32MX795F512L.a(int_enable_mv_int_lib.o)
                              Objects Files\TCPIP_init.o (INTEnableSystemMultiVectoredInt)
C:/Program Files/Microchip/MPLAB C32/bin/../lib/gcc/pic32mx/3.4.4/../../../../pic32mx/lib/size\libmchp_peripheral_32MX795F512L.a(int_tbl_lib.o)
                              Objects Files\App_init.o (INTClearFlag)
C:/Program Files/Microchip/MPLAB C32/bin/../lib/gcc/pic32mx/3.4.4/../../../../pic32mx/lib/size\libmchp_peripheral_32MX795F512L.a(port_set_pins_digital_out_lib.o)
                              Objects Files\App_init.o (PORTSetPinsDigitalOut)
C:/Program Files/Microchip/MPLAB C32/bin/../lib/gcc/pic32mx/3.4.4/../../../../pic32mx/lib/size\libmchp_peripheral_32MX795F512L.a(port_clear_bits_lib.o)
                              Objects Files\App_init.o (PORTClearBits)
C:/Program Files/Microchip/MPLAB C32/bin/../lib/gcc/pic32mx/3.4.4/../../../../pic32mx/lib/size\libmchp_peripheral_32MX795F512L.a(port_set_bits_lib.o)
                              Objects Files\Task_HTTP.o (PORTSetBits)
C:/Program Files/Microchip/MPLAB C32/bin/../lib/gcc/pic32mx/3.4.4/../../../../pic32mx/lib/size\libmchp_peripheral_32MX795F512L.a(_ports_tbl_libp.o)
                              C:/Program Files/Microchip/MPLAB C32/bin/../lib/gcc/pic32mx/3.4.4/../../../../pic32mx/lib/size\libmchp_peripheral_32MX795F512L.a(port_set_pins_digital_out_lib.o) (PortRegTbl)
C:/Program Files/Microchip/MPLAB C32/bin/../lib/gcc/pic32mx/3.4.4/../../../../pic32mx/lib/size\libmchp_peripheral_32MX795F512L.a(uart_lib.o)
                              Objects Files\App_functions.o (uartReg)
C:/Program Files/Microchip/MPLAB C32/bin/../lib/gcc/pic32mx/3.4.4/../../../../pic32mx/lib/size\libmchp_peripheral_32MX795F512L.a(puts_uartx_lib_legacy.o)
                              Objects Files\WFConsole.o (putsUART2)
C:/Program Files/Microchip/MPLAB C32/bin/../lib/gcc/pic32mx/3.4.4/../../../../pic32mx/lib/size\libmchp_peripheral_32MX795F512L.a(int_enable_interrupts_lib.o)
                              C:/Program Files/Microchip/MPLAB C32/bin/../lib/gcc/pic32mx/3.4.4/../../../../pic32mx/lib/size\libmchp_peripheral_32MX795F512L.a(int_enable_mv_int_lib.o) (INTEnableInterrupts)
C:/Program Files/Microchip/MPLAB C32/bin/../lib/gcc/pic32mx/3.4.4/size\libgcc.a(_umoddi3.o)
                              C:/Program Files/Microchip/MPLAB C32/bin/../lib/gcc/pic32mx/3.4.4/../../../../pic32mx/lib/size\libc.a(_doprnt.o) (__umoddi3)

Allocating common symbols
Common symbol       size              file

Change_Direction_up
                    0x1               Objects Files\RTOS_init.o
RawWindowState      0x2               Objects Files\WFDriverRaw.o
activeUDPSocket     0x1               Objects Files\UDP.o
Change_Direction_down
                    0x1               Objects Files\RTOS_init.o
curHTTP             0x8c              Objects Files\HTTP2.o
g_rxIndexSetBeyondBuffer
                    0x4               Objects Files\WFMac.o
g_ConsoleContext    0x17c             Objects Files\WFConsole.o
UDPTxCount          0x2               Objects Files\UDP.o
xQueueDebugPrintIP  0x4               Objects Files\RTOS_init.o
BAS_BUTE            0x2               Objects Files\RTOS_init.o
xQueueDebugPrint    0x4               Objects Files\RTOS_init.o
init_ok             0x1               Objects Files\RTOS_init.o
xSemaphoreVitesse   0x4               Objects Files\RTOS_init.o
curHTTPID           0x1               Objects Files\HTTP2.o
lastRead            0x4               Objects Files\MPFS2.o
g_ScanCtx           0x6               Objects Files\WFEasyConfig.o
RawWindowReady      0x8               Objects Files\WFDriverRaw.o
RawMoveState        0x8               Objects Files\WFDriverCom.o
Change_Vitesse_down
                    0x1               Objects Files\RTOS_init.o
increment_direction
                    0x1               Objects Files\RTOS_init.o
AN0String           0x8               Objects Files\RTOS_init.o
resultat_courant    0x2               Objects Files\RTOS_init.o
increment_vitesse   0x1               Objects Files\RTOS_init.o
UDPSocketInfo       0x7e              Objects Files\UDP.o
resultat            0x2               Objects Files\RTOS_init.o
xQueueAcquiData     0x4               Objects Files\RTOS_init.o
remoteNode          0xa               Objects Files\StackTsk.o
xSemaphoreConsDir   0x4               Objects Files\RTOS_init.o
MemoryIndexVar      0x8               Objects Files\RTOS_init.o
UDPRxCount          0x2               Objects Files\UDP.o
g_easyConfigCtx     0x98              Objects Files\WFEasyConfig.o
g_bfr               0x34              Objects Files\IperfApp.o
httpStubs           0x10              Objects Files\HTTP2.o
Vitesse             0x2               Objects Files\RTOS_init.o
AppConfig           0x9a              Objects Files\RTOS_init.o
Change_Vitesse_up   0x1               Objects Files\RTOS_init.o
ConsDir             0x2               Objects Files\RTOS_init.o
HAUT_BUTE           0x2               Objects Files\RTOS_init.o
Marche_Avant_Arriere
                    0x1               Objects Files\RTOS_init.o
ZERO_BUTE           0x2               Objects Files\RTOS_init.o
LCDText             0x21              Objects Files\LCDBlocking.o

Microchip PIC32 Memory-Usage Report

kseg0 Program-Memory Usage
section                    address  length [bytes]      (dec)  Description
-------                 ----------  -------------------------  -----------
.text                   0x9d000000        0x2a100      172288  Application's executable code 
.FreeRTOS               0x9d02a100          0x440        1088   
.rodata                 0x9d02a540         0x1dc4        7620  Read-only constant data 
.eh_frame               0x9d02c304           0x50          80  Stack unwind info 
.data                   0x9d02c354           0xf4         244  Data-initialization template 
.sdata                  0x9d02c448           0x18          24  Small data-initialization template 
      Total kseg0_program_mem used  :     0x2c460      181344  34.6% of 0x80000

kseg0 Boot-Memory Usage
section                    address  length [bytes]      (dec)  Description
-------                 ----------  -------------------------  -----------
.startup                0x9fc00490          0x1e0         480  C startup code 
         Total kseg0_boot_mem used  :       0x1e0         480  19.9% of 0x970

Exception-Memory Usage 
section                    address  length [bytes]      (dec)  Description
-------                 ----------  -------------------------  -----------
.app_excpt              0x9fc01180           0x10          16  General-Exception handler 
.vector_1               0x9fc01220            0x8           8  Interrupt Vector 1 
.vector_4               0x9fc01280            0x8           8  Interrupt Vector 4 
.vector_7               0x9fc012e0            0x8           8  Interrupt Vector 7 
.vector_8               0x9fc01300            0x8           8  Interrupt Vector 8 
.vector_12              0x9fc01380            0x8           8  Interrupt Vector 12 
.vector_32              0x9fc01600            0x8           8  Interrupt Vector 32 
          Total exception_mem used  :        0x40          64  1.6% of 0x1000

kseg1 Boot-Memory Usage
section                    address  length [bytes]      (dec)  Description
-------                 ----------  -------------------------  -----------
.reset                  0xbfc00000           0x10          16  Reset handler 
.bev_excpt              0xbfc00380           0x10          16  BEV-Exception handler 
         Total kseg1_boot_mem used  :        0x20          32  2.7% of 0x490
        --------------------------------------------------------------------------
         Total Program Memory used  :     0x2c6a0      181920  34.2% of 0x81e00
        --------------------------------------------------------------------------


kseg1 Data-Memory Usage
section                    address  length [bytes]      (dec)  Description
-------                 ----------  -------------------------  -----------
.data                   0xa0000000           0xf4         244  Initialized data 
.sdata                  0xa00000f4           0x18          24  Small initialized data 
.sbss                   0xa000010c          0x17e         382  Small uninitialized data 
.bss                    0xa0000290         0x6dec       28140  Uninitialized data 
.stack                  0xa0007080          0x400        1024  Minimum space reserved for stack 
         Total kseg1_data_mem used  :      0x7476       29814  22.7% of 0x20000
        --------------------------------------------------------------------------
            Total Data Memory used  :      0x7476       29814  22.7% of 0x20000
        --------------------------------------------------------------------------

Discarded input sections

 .reginfo       0x00000000       0x18 C:/Program Files/Microchip/MPLAB C32/bin/../lib/gcc/pic32mx/3.4.4/../../../../pic32mx/lib/size/crt0.o
 .pdr           0x00000000       0xa0 C:/Program Files/Microchip/MPLAB C32/bin/../lib/gcc/pic32mx/3.4.4/../../../../pic32mx/lib/size/crt0.o
 .reginfo       0x00000000       0x18 Objects Files\tasks.o
 .pdr           0x00000000      0x2e0 Objects Files\tasks.o
 .reginfo       0x00000000       0x18 Objects Files\list.o
 .pdr           0x00000000       0xa0 Objects Files\list.o
 .reginfo       0x00000000       0x18 Objects Files\queue.o
 .pdr           0x00000000      0x1e0 Objects Files\queue.o
 .reginfo       0x00000000       0x18 Objects Files\port_asm.o
 .pdr           0x00000000       0x60 Objects Files\port_asm.o
 .reginfo       0x00000000       0x18 Objects Files\port.o
 .pdr           0x00000000      0x120 Objects Files\port.o
 .reginfo       0x00000000       0x18 Objects Files\heap_1.o
 .pdr           0x00000000       0x80 Objects Files\heap_1.o
 .reginfo       0x00000000       0x18 Objects Files\WF_Config.o
 .pdr           0x00000000       0x40 Objects Files\WF_Config.o
 .reginfo       0x00000000       0x18 Objects Files\RTOS_init.o
 .pdr           0x00000000       0x20 Objects Files\RTOS_init.o
 .reginfo       0x00000000       0x18 Objects Files\App_functions.o
 .pdr           0x00000000       0xe0 Objects Files\App_functions.o
 .reginfo       0x00000000       0x18 Objects Files\App_HTTP_custom.o
 .pdr           0x00000000      0x180 Objects Files\App_HTTP_custom.o
 .reginfo       0x00000000       0x18 Objects Files\TCPIP_init.o
 .pdr           0x00000000       0xc0 Objects Files\TCPIP_init.o
 .reginfo       0x00000000       0x18 Objects Files\App_init.o
 .pdr           0x00000000       0x40 Objects Files\App_init.o
 .reginfo       0x00000000       0x18 Objects Files\Main.o
 .pdr           0x00000000       0xe0 Objects Files\Main.o
 .reginfo       0x00000000       0x18 Objects Files\Task_HTTP.o
 .pdr           0x00000000       0x20 Objects Files\Task_HTTP.o
 .reginfo       0x00000000       0x18 Objects Files\Task_control.o
 .pdr           0x00000000       0x20 Objects Files\Task_control.o
 .reginfo       0x00000000       0x18 Objects Files\Task_Network.o
 .pdr           0x00000000       0x20 Objects Files\Task_Network.o
 .reginfo       0x00000000       0x18 Objects Files\WF_Eint.o
 .pdr           0x00000000       0xe0 Objects Files\WF_Eint.o
 .reginfo       0x00000000       0x18 Objects Files\WF_Spi.o
 .pdr           0x00000000       0xa0 Objects Files\WF_Spi.o
 .reginfo       0x00000000       0x18 Objects Files\WFConnectionAlgorithm.o
 .pdr           0x00000000      0x440 Objects Files\WFConnectionAlgorithm.o
 .reginfo       0x00000000       0x18 Objects Files\WFConnectionManager.o
 .pdr           0x00000000       0xa0 Objects Files\WFConnectionManager.o
 .reginfo       0x00000000       0x18 Objects Files\WFConnectionProfile.o
 .pdr           0x00000000      0x260 Objects Files\WFConnectionProfile.o
 .reginfo       0x00000000       0x18 Objects Files\WFConsole.o
 .pdr           0x00000000      0x3e0 Objects Files\WFConsole.o
 .reginfo       0x00000000       0x18 Objects Files\WFConsoleIfconfig.o
 .pdr           0x00000000        0x0 Objects Files\WFConsoleIfconfig.o
 .reginfo       0x00000000       0x18 Objects Files\WFConsoleIwconfig.o
 .pdr           0x00000000        0x0 Objects Files\WFConsoleIwconfig.o
 .reginfo       0x00000000       0x18 Objects Files\WFConsoleIwpriv.o
 .pdr           0x00000000        0x0 Objects Files\WFConsoleIwpriv.o
 .reginfo       0x00000000       0x18 Objects Files\WFConsoleMsgHandler.o
 .pdr           0x00000000       0xa0 Objects Files\WFConsoleMsgHandler.o
 .reginfo       0x00000000       0x18 Objects Files\WFConsoleMsgs.o
 .pdr           0x00000000       0xe0 Objects Files\WFConsoleMsgs.o
 .reginfo       0x00000000       0x18 Objects Files\WFDataTxRx.o
 .pdr           0x00000000        0x0 Objects Files\WFDataTxRx.o
 .reginfo       0x00000000       0x18 Objects Files\WFDriverCom.o
 .pdr           0x00000000      0x1c0 Objects Files\WFDriverCom.o
 .reginfo       0x00000000       0x18 Objects Files\WFDriverRaw.o
 .pdr           0x00000000      0x2a0 Objects Files\WFDriverRaw.o
 .reginfo       0x00000000       0x18 Objects Files\WFEasyConfig.o
 .pdr           0x00000000      0x100 Objects Files\WFEasyConfig.o
 .reginfo       0x00000000       0x18 Objects Files\WFEventHandler.o
 .pdr           0x00000000       0x60 Objects Files\WFEventHandler.o
 .reginfo       0x00000000       0x18 Objects Files\WFInit.o
 .pdr           0x00000000       0x40 Objects Files\WFInit.o
 .reginfo       0x00000000       0x18 Objects Files\WFMac.o
 .pdr           0x00000000      0x3e0 Objects Files\WFMac.o
 .reginfo       0x00000000       0x18 Objects Files\WFMgmtMsg.o
 .pdr           0x00000000       0xa0 Objects Files\WFMgmtMsg.o
 .reginfo       0x00000000       0x18 Objects Files\WFParamMsg.o
 .pdr           0x00000000      0x200 Objects Files\WFParamMsg.o
 .reginfo       0x00000000       0x18 Objects Files\WFPowerSave.o
 .pdr           0x00000000      0x140 Objects Files\WFPowerSave.o
 .reginfo       0x00000000       0x18 Objects Files\WFScan.o
 .pdr           0x00000000       0x40 Objects Files\WFScan.o
 .reginfo       0x00000000       0x18 Objects Files\WFTxPower.o
 .pdr           0x00000000      0x140 Objects Files\WFTxPower.o
 .reginfo       0x00000000       0x18 Objects Files\ARCFOUR.o
 .pdr           0x00000000        0x0 Objects Files\ARCFOUR.o
 .reginfo       0x00000000       0x18 Objects Files\ARP.o
 .pdr           0x00000000       0xc0 Objects Files\ARP.o
 .reginfo       0x00000000       0x18 Objects Files\BigInt.o
 .pdr           0x00000000        0x0 Objects Files\BigInt.o
 .reginfo       0x00000000       0x18 Objects Files\BigInt_helper_C32.o
 .pdr           0x00000000        0x0 Objects Files\BigInt_helper_C32.o
 .reginfo       0x00000000       0x18 Objects Files\Delay.o
 .pdr           0x00000000       0x40 Objects Files\Delay.o
 .reginfo       0x00000000       0x18 Objects Files\DHCPs.o
 .pdr           0x00000000       0x60 Objects Files\DHCPs.o
 .reginfo       0x00000000       0x18 Objects Files\Hashes.o
 .pdr           0x00000000        0x0 Objects Files\Hashes.o
 .reginfo       0x00000000       0x18 Objects Files\Helpers.o
 .pdr           0x00000000      0x220 Objects Files\Helpers.o
 .reginfo       0x00000000       0x18 Objects Files\HTTP2.o
 .pdr           0x00000000      0x200 Objects Files\HTTP2.o
 .reginfo       0x00000000       0x18 Objects Files\ICMP.o
 .pdr           0x00000000       0x20 Objects Files\ICMP.o
 .reginfo       0x00000000       0x18 Objects Files\IP.o
 .pdr           0x00000000       0x80 Objects Files\IP.o
 .reginfo       0x00000000       0x18 Objects Files\LCDBlocking.o
 .pdr           0x00000000       0x80 Objects Files\LCDBlocking.o
 .reginfo       0x00000000       0x18 Objects Files\MPFS2.o
 .pdr           0x00000000      0x2e0 Objects Files\MPFS2.o
 .reginfo       0x00000000       0x18 Objects Files\NBNS.o
 .pdr           0x00000000        0x0 Objects Files\NBNS.o
 .reginfo       0x00000000       0x18 Objects Files\Random.o
 .pdr           0x00000000        0x0 Objects Files\Random.o
 .reginfo       0x00000000       0x18 Objects Files\Reboot.o
 .pdr           0x00000000        0x0 Objects Files\Reboot.o
 .reginfo       0x00000000       0x18 Objects Files\RSA.o
 .pdr           0x00000000        0x0 Objects Files\RSA.o
 .reginfo       0x00000000       0x18 Objects Files\SPIEEPROM.o
 .pdr           0x00000000      0x160 Objects Files\SPIEEPROM.o
 .reginfo       0x00000000       0x18 Objects Files\StackTsk.o
 .pdr           0x00000000       0x60 Objects Files\StackTsk.o
 .reginfo       0x00000000       0x18 Objects Files\TCP.o
 .pdr           0x00000000      0x420 Objects Files\TCP.o
 .reginfo       0x00000000       0x18 Objects Files\Tick.o
 .pdr           0x00000000      0x100 Objects Files\Tick.o
 .reginfo       0x00000000       0x18 Objects Files\UDP.o
 .pdr           0x00000000      0x220 Objects Files\UDP.o
 .reginfo       0x00000000       0x18 Objects Files\isr_wrapper.o
 .pdr           0x00000000       0x40 Objects Files\isr_wrapper.o
 .reginfo       0x00000000       0x18 Objects Files\Task_DebugUART.o
 .pdr           0x00000000       0x20 Objects Files\Task_DebugUART.o
 .reginfo       0x00000000       0x18 Objects Files\IperfApp.o
 .pdr           0x00000000      0x3c0 Objects Files\IperfApp.o
 .reginfo       0x00000000       0x18 C:/Program Files/Microchip/MPLAB C32/bin/../lib/gcc/pic32mx/3.4.4/size\libgcc.a(_udivdi3.o)
 .pdr           0x00000000       0x20 C:/Program Files/Microchip/MPLAB C32/bin/../lib/gcc/pic32mx/3.4.4/size\libgcc.a(_udivdi3.o)
 .reginfo       0x00000000       0x18 C:/Program Files/Microchip/MPLAB C32/bin/../lib/gcc/pic32mx/3.4.4/../../../../pic32mx/lib/size\libc.a(memcmp.o)
 .pdr           0x00000000       0x20 C:/Program Files/Microchip/MPLAB C32/bin/../lib/gcc/pic32mx/3.4.4/../../../../pic32mx/lib/size\libc.a(memcmp.o)
 .reginfo       0x00000000       0x18 C:/Program Files/Microchip/MPLAB C32/bin/../lib/gcc/pic32mx/3.4.4/../../../../pic32mx/lib/size\libc.a(memcpy.o)
 .pdr           0x00000000       0x20 C:/Program Files/Microchip/MPLAB C32/bin/../lib/gcc/pic32mx/3.4.4/../../../../pic32mx/lib/size\libc.a(memcpy.o)
 .reginfo       0x00000000       0x18 C:/Program Files/Microchip/MPLAB C32/bin/../lib/gcc/pic32mx/3.4.4/../../../../pic32mx/lib/size\libc.a(memset.o)
 .pdr           0x00000000       0x20 C:/Program Files/Microchip/MPLAB C32/bin/../lib/gcc/pic32mx/3.4.4/../../../../pic32mx/lib/size\libc.a(memset.o)
 .reginfo       0x00000000       0x18 C:/Program Files/Microchip/MPLAB C32/bin/../lib/gcc/pic32mx/3.4.4/../../../../pic32mx/lib/size\libc.a(strcmp.o)
 .pdr           0x00000000       0x20 C:/Program Files/Microchip/MPLAB C32/bin/../lib/gcc/pic32mx/3.4.4/../../../../pic32mx/lib/size\libc.a(strcmp.o)
 .reginfo       0x00000000       0x18 C:/Program Files/Microchip/MPLAB C32/bin/../lib/gcc/pic32mx/3.4.4/../../../../pic32mx/lib/size\libc.a(strcpy.o)
 .pdr           0x00000000       0x20 C:/Program Files/Microchip/MPLAB C32/bin/../lib/gcc/pic32mx/3.4.4/../../../../pic32mx/lib/size\libc.a(strcpy.o)
 .reginfo       0x00000000       0x18 C:/Program Files/Microchip/MPLAB C32/bin/../lib/gcc/pic32mx/3.4.4/../../../../pic32mx/lib/size\libc.a(strlen.o)
 .pdr           0x00000000       0x20 C:/Program Files/Microchip/MPLAB C32/bin/../lib/gcc/pic32mx/3.4.4/../../../../pic32mx/lib/size\libc.a(strlen.o)
 .reginfo       0x00000000       0x18 C:/Program Files/Microchip/MPLAB C32/bin/../lib/gcc/pic32mx/3.4.4/../../../../pic32mx/lib/size\libc.a(general-exception.o)
 .pdr           0x00000000       0x20 C:/Program Files/Microchip/MPLAB C32/bin/../lib/gcc/pic32mx/3.4.4/../../../../pic32mx/lib/size\libc.a(general-exception.o)
 .reginfo       0x00000000       0x18 C:/Program Files/Microchip/MPLAB C32/bin/../lib/gcc/pic32mx/3.4.4/../../../../pic32mx/lib/size\libc.a(strncpy.o)
 .pdr           0x00000000       0x20 C:/Program Files/Microchip/MPLAB C32/bin/../lib/gcc/pic32mx/3.4.4/../../../../pic32mx/lib/size\libc.a(strncpy.o)
 .reginfo       0x00000000       0x18 C:/Program Files/Microchip/MPLAB C32/bin/../lib/gcc/pic32mx/3.4.4/../../../../pic32mx/lib/size\libc.a(exit.o)
 .pdr           0x00000000       0x20 C:/Program Files/Microchip/MPLAB C32/bin/../lib/gcc/pic32mx/3.4.4/../../../../pic32mx/lib/size\libc.a(exit.o)
 .reginfo       0x00000000       0x18 C:/Program Files/Microchip/MPLAB C32/bin/../lib/gcc/pic32mx/3.4.4/../../../../pic32mx/lib/size\libc.a(ctype.o)
 .pdr           0x00000000        0x0 C:/Program Files/Microchip/MPLAB C32/bin/../lib/gcc/pic32mx/3.4.4/../../../../pic32mx/lib/size\libc.a(ctype.o)
 .reginfo       0x00000000       0x18 C:/Program Files/Microchip/MPLAB C32/bin/../lib/gcc/pic32mx/3.4.4/../../../../pic32mx/lib/size\libc.a(ctypef.o)
 .pdr           0x00000000      0x220 C:/Program Files/Microchip/MPLAB C32/bin/../lib/gcc/pic32mx/3.4.4/../../../../pic32mx/lib/size\libc.a(ctypef.o)
 .reginfo       0x00000000       0x18 C:/Program Files/Microchip/MPLAB C32/bin/../lib/gcc/pic32mx/3.4.4/../../../../pic32mx/lib/size\libc.a(atol.o)
 .pdr           0x00000000       0x20 C:/Program Files/Microchip/MPLAB C32/bin/../lib/gcc/pic32mx/3.4.4/../../../../pic32mx/lib/size\libc.a(atol.o)
 .reginfo       0x00000000       0x18 C:/Program Files/Microchip/MPLAB C32/bin/../lib/gcc/pic32mx/3.4.4/../../../../pic32mx/lib/size\libc.a(strtol.o)
 .pdr           0x00000000       0x20 C:/Program Files/Microchip/MPLAB C32/bin/../lib/gcc/pic32mx/3.4.4/../../../../pic32mx/lib/size\libc.a(strtol.o)
 .reginfo       0x00000000       0x18 C:/Program Files/Microchip/MPLAB C32/bin/../lib/gcc/pic32mx/3.4.4/../../../../pic32mx/lib/size\libc.a(sprintf.o)
 .pdr           0x00000000       0x20 C:/Program Files/Microchip/MPLAB C32/bin/../lib/gcc/pic32mx/3.4.4/../../../../pic32mx/lib/size\libc.a(sprintf.o)
 .reginfo       0x00000000       0x18 C:/Program Files/Microchip/MPLAB C32/bin/../lib/gcc/pic32mx/3.4.4/../../../../pic32mx/lib/size\libc.a(__vsnprintf.o)
 .pdr           0x00000000       0x20 C:/Program Files/Microchip/MPLAB C32/bin/../lib/gcc/pic32mx/3.4.4/../../../../pic32mx/lib/size\libc.a(__vsnprintf.o)
 .reginfo       0x00000000       0x18 C:/Program Files/Microchip/MPLAB C32/bin/../lib/gcc/pic32mx/3.4.4/../../../../pic32mx/lib/size\libc.a(default-bootstrap-exception-handler.o)
 .pdr           0x00000000       0x20 C:/Program Files/Microchip/MPLAB C32/bin/../lib/gcc/pic32mx/3.4.4/../../../../pic32mx/lib/size\libc.a(default-bootstrap-exception-handler.o)
 .reginfo       0x00000000       0x18 C:/Program Files/Microchip/MPLAB C32/bin/../lib/gcc/pic32mx/3.4.4/../../../../pic32mx/lib/size\libc.a(default-on-reset.o)
 .pdr           0x00000000       0x20 C:/Program Files/Microchip/MPLAB C32/bin/../lib/gcc/pic32mx/3.4.4/../../../../pic32mx/lib/size\libc.a(default-on-reset.o)
 .reginfo       0x00000000       0x18 C:/Program Files/Microchip/MPLAB C32/bin/../lib/gcc/pic32mx/3.4.4/../../../../pic32mx/lib/size\libc.a(default-on-bootstrap.o)
 .pdr           0x00000000       0x20 C:/Program Files/Microchip/MPLAB C32/bin/../lib/gcc/pic32mx/3.4.4/../../../../pic32mx/lib/size\libc.a(default-on-bootstrap.o)
 .reginfo       0x00000000       0x18 C:/Program Files/Microchip/MPLAB C32/bin/../lib/gcc/pic32mx/3.4.4/../../../../pic32mx/lib/size\libc.a(default-nmi-handler.o)
 .pdr           0x00000000       0x20 C:/Program Files/Microchip/MPLAB C32/bin/../lib/gcc/pic32mx/3.4.4/../../../../pic32mx/lib/size\libc.a(default-nmi-handler.o)
 .reginfo       0x00000000       0x18 C:/Program Files/Microchip/MPLAB C32/bin/../lib/gcc/pic32mx/3.4.4/../../../../pic32mx/lib/size\libc.a(_exit.o)
 .pdr           0x00000000       0x20 C:/Program Files/Microchip/MPLAB C32/bin/../lib/gcc/pic32mx/3.4.4/../../../../pic32mx/lib/size\libc.a(_exit.o)
 .reginfo       0x00000000       0x18 C:/Program Files/Microchip/MPLAB C32/bin/../lib/gcc/pic32mx/3.4.4/../../../../pic32mx/lib/size\libc.a(errno.o)
 .pdr           0x00000000        0x0 C:/Program Files/Microchip/MPLAB C32/bin/../lib/gcc/pic32mx/3.4.4/../../../../pic32mx/lib/size\libc.a(errno.o)
 .reginfo       0x00000000       0x18 C:/Program Files/Microchip/MPLAB C32/bin/../lib/gcc/pic32mx/3.4.4/../../../../pic32mx/lib/size\libc.a(_doprnt.o)
 .pdr           0x00000000       0xc0 C:/Program Files/Microchip/MPLAB C32/bin/../lib/gcc/pic32mx/3.4.4/../../../../pic32mx/lib/size\libc.a(_doprnt.o)
 .reginfo       0x00000000       0x18 C:/Program Files/Microchip/MPLAB C32/bin/../lib/gcc/pic32mx/3.4.4/../../../../pic32mx/lib/size\libc.a(_iobdata.o)
 .pdr           0x00000000        0x0 C:/Program Files/Microchip/MPLAB C32/bin/../lib/gcc/pic32mx/3.4.4/../../../../pic32mx/lib/size\libc.a(_iobdata.o)
 .reginfo       0x00000000       0x18 C:/Program Files/Microchip/MPLAB C32/bin/../lib/gcc/pic32mx/3.4.4/../../../../pic32mx/lib/size\libc.a(_iobfuncs.o)
 .pdr           0x00000000       0xc0 C:/Program Files/Microchip/MPLAB C32/bin/../lib/gcc/pic32mx/3.4.4/../../../../pic32mx/lib/size\libc.a(_iobfuncs.o)
 .reginfo       0x00000000       0x18 C:/Program Files/Microchip/MPLAB C32/bin/../lib/gcc/pic32mx/3.4.4/../../../../pic32mx/lib/size\libc.a(_iobstring.o)
 .pdr           0x00000000       0xa0 C:/Program Files/Microchip/MPLAB C32/bin/../lib/gcc/pic32mx/3.4.4/../../../../pic32mx/lib/size\libc.a(_iobstring.o)
 .reginfo       0x00000000       0x18 C:/Program Files/Microchip/MPLAB C32/bin/../lib/gcc/pic32mx/3.4.4/../../../../pic32mx/lib/size\libc.a(fputc.o)
 .pdr           0x00000000       0x60 C:/Program Files/Microchip/MPLAB C32/bin/../lib/gcc/pic32mx/3.4.4/../../../../pic32mx/lib/size\libc.a(fputc.o)
 .reginfo       0x00000000       0x18 C:/Program Files/Microchip/MPLAB C32/bin/../lib/gcc/pic32mx/3.4.4/../../../../pic32mx/lib/size\libc.a(stubs.o)
 .pdr           0x00000000      0x2c0 C:/Program Files/Microchip/MPLAB C32/bin/../lib/gcc/pic32mx/3.4.4/../../../../pic32mx/lib/size\libc.a(stubs.o)
 .reginfo       0x00000000       0x18 C:/Program Files/Microchip/MPLAB C32/bin/../lib/gcc/pic32mx/3.4.4/../../../../pic32mx/lib/size\libc.a(_mon_getc.o)
 .pdr           0x00000000       0x20 C:/Program Files/Microchip/MPLAB C32/bin/../lib/gcc/pic32mx/3.4.4/../../../../pic32mx/lib/size\libc.a(_mon_getc.o)
 .reginfo       0x00000000       0x18 C:/Program Files/Microchip/MPLAB C32/bin/../lib/gcc/pic32mx/3.4.4/../../../../pic32mx/lib/size\libc.a(_mon_write.o)
 .pdr           0x00000000       0x20 C:/Program Files/Microchip/MPLAB C32/bin/../lib/gcc/pic32mx/3.4.4/../../../../pic32mx/lib/size\libc.a(_mon_write.o)
 .reginfo       0x00000000       0x18 C:/Program Files/Microchip/MPLAB C32/bin/../lib/gcc/pic32mx/3.4.4/../../../../pic32mx/lib/size\libc.a(fullexit.o)
 .pdr           0x00000000       0x20 C:/Program Files/Microchip/MPLAB C32/bin/../lib/gcc/pic32mx/3.4.4/../../../../pic32mx/lib/size\libc.a(fullexit.o)
 .reginfo       0x00000000       0x18 C:/Program Files/Microchip/MPLAB C32/bin/../lib/gcc/pic32mx/3.4.4/../../../../pic32mx/lib/size\libc.a(_mon_putc.o)
 .pdr           0x00000000       0x20 C:/Program Files/Microchip/MPLAB C32/bin/../lib/gcc/pic32mx/3.4.4/../../../../pic32mx/lib/size\libc.a(_mon_putc.o)
 .reginfo       0x00000000       0x18 C:/Program Files/Microchip/MPLAB C32/bin/../lib/gcc/pic32mx/3.4.4/../../../../pic32mx/lib/size\libm.a(mod32.o)
 .pdr           0x00000000        0x0 C:/Program Files/Microchip/MPLAB C32/bin/../lib/gcc/pic32mx/3.4.4/../../../../pic32mx/lib/size\libm.a(mod32.o)
 .reginfo       0x00000000       0x18 C:/Program Files/Microchip/MPLAB C32/bin/../lib/gcc/pic32mx/3.4.4/../../../../pic32mx/lib/size\libm.a(dp32.o)
 .pdr           0x00000000        0x0 C:/Program Files/Microchip/MPLAB C32/bin/../lib/gcc/pic32mx/3.4.4/../../../../pic32mx/lib/size\libm.a(dp32.o)
 .reginfo       0x00000000       0x18 C:/Program Files/Microchip/MPLAB C32/bin/../lib/gcc/pic32mx/3.4.4/../../../../pic32mx/lib/size\libm.a(fp32.o)
 .pdr           0x00000000        0x0 C:/Program Files/Microchip/MPLAB C32/bin/../lib/gcc/pic32mx/3.4.4/../../../../pic32mx/lib/size\libm.a(fp32.o)
 .reginfo       0x00000000       0x18 C:/Program Files/Microchip/MPLAB C32/bin/../lib/gcc/pic32mx/3.4.4/../../../../pic32mx/lib/size\libmchp_peripheral_32MX795F512L.a(soft_reset_lib.o)
 .pdr           0x00000000       0x20 C:/Program Files/Microchip/MPLAB C32/bin/../lib/gcc/pic32mx/3.4.4/../../../../pic32mx/lib/size\libmchp_peripheral_32MX795F512L.a(soft_reset_lib.o)
 .reginfo       0x00000000       0x18 C:/Program Files/Microchip/MPLAB C32/bin/../lib/gcc/pic32mx/3.4.4/../../../../pic32mx/lib/size\libmchp_peripheral_32MX795F512L.a(pcache.o)
 .pdr           0x00000000       0x40 C:/Program Files/Microchip/MPLAB C32/bin/../lib/gcc/pic32mx/3.4.4/../../../../pic32mx/lib/size\libmchp_peripheral_32MX795F512L.a(pcache.o)
 .reginfo       0x00000000       0x18 C:/Program Files/Microchip/MPLAB C32/bin/../lib/gcc/pic32mx/3.4.4/../../../../pic32mx/lib/size\libmchp_peripheral_32MX795F512L.a(set_core_sw0_leg_lib.o)
 .pdr           0x00000000       0x20 C:/Program Files/Microchip/MPLAB C32/bin/../lib/gcc/pic32mx/3.4.4/../../../../pic32mx/lib/size\libmchp_peripheral_32MX795F512L.a(set_core_sw0_leg_lib.o)
 .reginfo       0x00000000       0x18 C:/Program Files/Microchip/MPLAB C32/bin/../lib/gcc/pic32mx/3.4.4/../../../../pic32mx/lib/size\libmchp_peripheral_32MX795F512L.a(int_disable_interrupts_lib.o)
 .pdr           0x00000000       0x20 C:/Program Files/Microchip/MPLAB C32/bin/../lib/gcc/pic32mx/3.4.4/../../../../pic32mx/lib/size\libmchp_peripheral_32MX795F512L.a(int_disable_interrupts_lib.o)
 .reginfo       0x00000000       0x18 C:/Program Files/Microchip/MPLAB C32/bin/../lib/gcc/pic32mx/3.4.4/../../../../pic32mx/lib/size\libmchp_peripheral_32MX795F512L.a(int_restore_interrupts_lib.o)
 .pdr           0x00000000       0x20 C:/Program Files/Microchip/MPLAB C32/bin/../lib/gcc/pic32mx/3.4.4/../../../../pic32mx/lib/size\libmchp_peripheral_32MX795F512L.a(int_restore_interrupts_lib.o)
 .reginfo       0x00000000       0x18 C:/Program Files/Microchip/MPLAB C32/bin/../lib/gcc/pic32mx/3.4.4/../../../../pic32mx/lib/size\libmchp_peripheral_32MX795F512L.a(int_enable_mv_int_lib.o)
 .pdr           0x00000000       0x20 C:/Program Files/Microchip/MPLAB C32/bin/../lib/gcc/pic32mx/3.4.4/../../../../pic32mx/lib/size\libmchp_peripheral_32MX795F512L.a(int_enable_mv_int_lib.o)
 .reginfo       0x00000000       0x18 C:/Program Files/Microchip/MPLAB C32/bin/../lib/gcc/pic32mx/3.4.4/../../../../pic32mx/lib/size\libmchp_peripheral_32MX795F512L.a(int_tbl_lib.o)
 .pdr           0x00000000      0x120 C:/Program Files/Microchip/MPLAB C32/bin/../lib/gcc/pic32mx/3.4.4/../../../../pic32mx/lib/size\libmchp_peripheral_32MX795F512L.a(int_tbl_lib.o)
 .reginfo       0x00000000       0x18 C:/Program Files/Microchip/MPLAB C32/bin/../lib/gcc/pic32mx/3.4.4/../../../../pic32mx/lib/size\libmchp_peripheral_32MX795F512L.a(port_set_pins_digital_out_lib.o)
 .pdr           0x00000000       0x20 C:/Program Files/Microchip/MPLAB C32/bin/../lib/gcc/pic32mx/3.4.4/../../../../pic32mx/lib/size\libmchp_peripheral_32MX795F512L.a(port_set_pins_digital_out_lib.o)
 .reginfo       0x00000000       0x18 C:/Program Files/Microchip/MPLAB C32/bin/../lib/gcc/pic32mx/3.4.4/../../../../pic32mx/lib/size\libmchp_peripheral_32MX795F512L.a(port_clear_bits_lib.o)
 .pdr           0x00000000       0x20 C:/Program Files/Microchip/MPLAB C32/bin/../lib/gcc/pic32mx/3.4.4/../../../../pic32mx/lib/size\libmchp_peripheral_32MX795F512L.a(port_clear_bits_lib.o)
 .reginfo       0x00000000       0x18 C:/Program Files/Microchip/MPLAB C32/bin/../lib/gcc/pic32mx/3.4.4/../../../../pic32mx/lib/size\libmchp_peripheral_32MX795F512L.a(port_set_bits_lib.o)
 .pdr           0x00000000       0x20 C:/Program Files/Microchip/MPLAB C32/bin/../lib/gcc/pic32mx/3.4.4/../../../../pic32mx/lib/size\libmchp_peripheral_32MX795F512L.a(port_set_bits_lib.o)
 .reginfo       0x00000000       0x18 C:/Program Files/Microchip/MPLAB C32/bin/../lib/gcc/pic32mx/3.4.4/../../../../pic32mx/lib/size\libmchp_peripheral_32MX795F512L.a(_ports_tbl_libp.o)
 .pdr           0x00000000        0x0 C:/Program Files/Microchip/MPLAB C32/bin/../lib/gcc/pic32mx/3.4.4/../../../../pic32mx/lib/size\libmchp_peripheral_32MX795F512L.a(_ports_tbl_libp.o)
 .reginfo       0x00000000       0x18 C:/Program Files/Microchip/MPLAB C32/bin/../lib/gcc/pic32mx/3.4.4/../../../../pic32mx/lib/size\libmchp_peripheral_32MX795F512L.a(uart_lib.o)
 .pdr           0x00000000      0x100 C:/Program Files/Microchip/MPLAB C32/bin/../lib/gcc/pic32mx/3.4.4/../../../../pic32mx/lib/size\libmchp_peripheral_32MX795F512L.a(uart_lib.o)
 .reginfo       0x00000000       0x18 C:/Program Files/Microchip/MPLAB C32/bin/../lib/gcc/pic32mx/3.4.4/../../../../pic32mx/lib/size\libmchp_peripheral_32MX795F512L.a(puts_uartx_lib_legacy.o)
 .pdr           0x00000000       0x40 C:/Program Files/Microchip/MPLAB C32/bin/../lib/gcc/pic32mx/3.4.4/../../../../pic32mx/lib/size\libmchp_peripheral_32MX795F512L.a(puts_uartx_lib_legacy.o)
 .reginfo       0x00000000       0x18 C:/Program Files/Microchip/MPLAB C32/bin/../lib/gcc/pic32mx/3.4.4/../../../../pic32mx/lib/size\libmchp_peripheral_32MX795F512L.a(int_enable_interrupts_lib.o)
 .pdr           0x00000000       0x20 C:/Program Files/Microchip/MPLAB C32/bin/../lib/gcc/pic32mx/3.4.4/../../../../pic32mx/lib/size\libmchp_peripheral_32MX795F512L.a(int_enable_interrupts_lib.o)
 .reginfo       0x00000000       0x18 C:/Program Files/Microchip/MPLAB C32/bin/../lib/gcc/pic32mx/3.4.4/size\libgcc.a(_umoddi3.o)
 .pdr           0x00000000       0x20 C:/Program Files/Microchip/MPLAB C32/bin/../lib/gcc/pic32mx/3.4.4/size\libgcc.a(_umoddi3.o)
 .reginfo       0x00000000       0x18 C:/Program Files/Microchip/MPLAB C32/bin/../lib/gcc/pic32mx/3.4.4/../../../../pic32mx/lib/./proc/32MX795F512L\processor.o
 .pdr           0x00000000        0x0 C:/Program Files/Microchip/MPLAB C32/bin/../lib/gcc/pic32mx/3.4.4/../../../../pic32mx/lib/./proc/32MX795F512L\processor.o

Memory Configuration

Name             Origin             Length             Attributes
kseg0_program_mem 0x9d000000         0x00080000         xr
kseg0_boot_mem   0x9fc00490         0x00000970
exception_mem    0x9fc01000         0x00001000
kseg1_boot_mem   0xbfc00000         0x00000490
debug_exec_mem   0xbfc02000         0x00000ff0
config3          0xbfc02ff0         0x00000004
config2          0xbfc02ff4         0x00000004
config1          0xbfc02ff8         0x00000004
config0          0xbfc02ffc         0x00000004
kseg1_data_mem   0xa0000000         0x00020000         w !x
sfrs             0xbf800000         0x00100000
configsfrs       0xbfc02ff0         0x00000010
*default*        0x00000000         0xffffffff

Linker script and memory map

LOAD C:/Program Files/Microchip/MPLAB C32/bin/../lib/gcc/pic32mx/3.4.4/../../../../pic32mx/lib/size/crt0.o
LOAD Objects Files\tasks.o
LOAD Objects Files\list.o
LOAD Objects Files\queue.o
LOAD Objects Files\port_asm.o
LOAD Objects Files\port.o
LOAD Objects Files\heap_1.o
LOAD Objects Files\WF_Config.o
LOAD Objects Files\RTOS_init.o
LOAD Objects Files\App_functions.o
LOAD Objects Files\App_HTTP_custom.o
LOAD Objects Files\TCPIP_init.o
LOAD Objects Files\App_init.o
LOAD Objects Files\Main.o
LOAD Objects Files\Task_HTTP.o
LOAD Objects Files\Task_control.o
LOAD Objects Files\Task_Network.o
LOAD Objects Files\WF_Eint.o
LOAD Objects Files\WF_Spi.o
LOAD Objects Files\WFConnectionAlgorithm.o
LOAD Objects Files\WFConnectionManager.o
LOAD Objects Files\WFConnectionProfile.o
LOAD Objects Files\WFConsole.o
LOAD Objects Files\WFConsoleIfconfig.o
LOAD Objects Files\WFConsoleIwconfig.o
LOAD Objects Files\WFConsoleIwpriv.o
LOAD Objects Files\WFConsoleMsgHandler.o
LOAD Objects Files\WFConsoleMsgs.o
LOAD Objects Files\WFDataTxRx.o
LOAD Objects Files\WFDriverCom.o
LOAD Objects Files\WFDriverRaw.o
LOAD Objects Files\WFEasyConfig.o
LOAD Objects Files\WFEventHandler.o
LOAD Objects Files\WFInit.o
LOAD Objects Files\WFMac.o
LOAD Objects Files\WFMgmtMsg.o
LOAD Objects Files\WFParamMsg.o
LOAD Objects Files\WFPowerSave.o
LOAD Objects Files\WFScan.o
LOAD Objects Files\WFTxPower.o
LOAD Objects Files\ARCFOUR.o
LOAD Objects Files\ARP.o
LOAD Objects Files\BigInt.o
LOAD Objects Files\BigInt_helper_C32.o
LOAD Objects Files\Delay.o
LOAD Objects Files\DHCPs.o
LOAD Objects Files\Hashes.o
LOAD Objects Files\Helpers.o
LOAD Objects Files\HTTP2.o
LOAD Objects Files\ICMP.o
LOAD Objects Files\IP.o
LOAD Objects Files\LCDBlocking.o
LOAD Objects Files\MPFS2.o
LOAD Objects Files\NBNS.o
LOAD Objects Files\Random.o
LOAD Objects Files\Reboot.o
LOAD Objects Files\RSA.o
LOAD Objects Files\SPIEEPROM.o
LOAD Objects Files\StackTsk.o
LOAD Objects Files\TCP.o
LOAD Objects Files\Tick.o
LOAD Objects Files\UDP.o
LOAD Objects Files\isr_wrapper.o
LOAD Objects Files\Task_DebugUART.o
LOAD Objects Files\IperfApp.o
                0x00000001                __MPLAB_BUILD = 0x1
LOAD C:/Program Files/Microchip/MPLAB C32/bin/../lib/gcc/pic32mx/3.4.4/size\libgcc.a
START GROUP
LOAD C:/Program Files/Microchip/MPLAB C32/bin/../lib/gcc/pic32mx/3.4.4/../../../../pic32mx/lib/size\libdebug.a
LOAD C:/Program Files/Microchip/MPLAB C32/bin/../lib/gcc/pic32mx/3.4.4/../../../../pic32mx/lib/size\libc.a
LOAD C:/Program Files/Microchip/MPLAB C32/bin/../lib/gcc/pic32mx/3.4.4/../../../../pic32mx/lib/size\libm.a
LOAD C:/Program Files/Microchip/MPLAB C32/bin/../lib/gcc/pic32mx/3.4.4/../../../../pic32mx/lib/size\libe.a
LOAD C:/Program Files/Microchip/MPLAB C32/bin/../lib/gcc/pic32mx/3.4.4/../../../../pic32mx/lib/size\libdsp.a
LOAD C:/Program Files/Microchip/MPLAB C32/bin/../lib/gcc/pic32mx/3.4.4/../../../../pic32mx/lib/size\libmchp_peripheral.a
LOAD C:/Program Files/Microchip/MPLAB C32/bin/../lib/gcc/pic32mx/3.4.4/../../../../pic32mx/lib/size\libmchp_peripheral_32MX795F512L.a
END GROUP
LOAD C:/Program Files/Microchip/MPLAB C32/bin/../lib/gcc/pic32mx/3.4.4/size\libgcc.a
                0x00000400                PROVIDE (_min_stack_size, 0x400)
                0x00000000                PROVIDE (_min_heap_size, 0x0)
LOAD C:/Program Files/Microchip/MPLAB C32/bin/../lib/gcc/pic32mx/3.4.4/../../../../pic32mx/lib/./proc/32MX795F512L\processor.o
                0x00000001                PROVIDE (_vector_spacing, 0x1)
                0x9fc01000                _ebase_address = 0x9fc01000
                0xbfc00000                _RESET_ADDR = 0xbfc00000
                0xbfc00380                _BEV_EXCPT_ADDR = 0xbfc00380
                0xbfc00480                _DBG_EXCPT_ADDR = 0xbfc00480
                0xbfc02000                _DBG_CODE_ADDR = 0xbfc02000
                0x9fc01180                _GEN_EXCPT_ADDR = (_ebase_address + 0x180)

.config_BFC02FF0
 *(.config_BFC02FF0)

.config_BFC02FF4
                0xbfc02ff4        0x4
 *(.config_BFC02FF4)
 .config_BFC02FF4
                0xbfc02ff4        0x4 Objects Files\Main.o

.config_BFC02FF8
                0xbfc02ff8        0x4
 *(.config_BFC02FF8)
 .config_BFC02FF8
                0xbfc02ff8        0x4 Objects Files\Main.o

.config_BFC02FFC
                0xbfc02ffc        0x4
 *(.config_BFC02FFC)
 .config_BFC02FFC
                0xbfc02ffc        0x4 Objects Files\Main.o

.reset          0xbfc00000       0x10
 *(.reset)
 .reset         0xbfc00000       0x10 C:/Program Files/Microchip/MPLAB C32/bin/../lib/gcc/pic32mx/3.4.4/../../../../pic32mx/lib/size/crt0.o
                0xbfc00000                _reset

.bev_excpt      0xbfc00380       0x10
 *(.bev_handler)
 .bev_handler   0xbfc00380       0x10 C:/Program Files/Microchip/MPLAB C32/bin/../lib/gcc/pic32mx/3.4.4/../../../../pic32mx/lib/size/crt0.o

.dbg_excpt      0xbfc00480        0x0
                0xbfc00480                . = (. + DEFINED (_DEBUGGER)?0x8:0x0)

.dbg_code       0xbfc02000        0x0
                0xbfc02000                . = (. + DEFINED (_DEBUGGER)?0xff0:0x0)

.app_excpt      0x9fc01180       0x10
 *(.gen_handler)
 .gen_handler   0x9fc01180       0x10 C:/Program Files/Microchip/MPLAB C32/bin/../lib/gcc/pic32mx/3.4.4/../../../../pic32mx/lib/size/crt0.o

.vector_0       0x9fc01200        0x0
 *(.vector_0)
                0x00000001                ASSERT (((_vector_spacing == 0x0) || (SIZEOF (.vector_0) <= (_vector_spacing << 0x5))), function at exception vector 0 too large)

.vector_1       0x9fc01220        0x8
 *(.vector_1)
 .vector_1      0x9fc01220        0x8 Objects Files\port.o
                0x00000001                ASSERT (((_vector_spacing == 0x0) || (SIZEOF (.vector_1) <= (_vector_spacing << 0x5))), function at exception vector 1 too large)

.vector_2       0x9fc01240        0x0
 *(.vector_2)
                0x00000001                ASSERT (((_vector_spacing == 0x0) || (SIZEOF (.vector_2) <= (_vector_spacing << 0x5))), function at exception vector 2 too large)

.vector_3       0x9fc01260        0x0
 *(.vector_3)
                0x00000001                ASSERT (((_vector_spacing == 0x0) || (SIZEOF (.vector_3) <= (_vector_spacing << 0x5))), function at exception vector 3 too large)

.vector_4       0x9fc01280        0x8
 *(.vector_4)
 .vector_4      0x9fc01280        0x8 Objects Files\Tick.o
                0x00000001                ASSERT (((_vector_spacing == 0x0) || (SIZEOF (.vector_4) <= (_vector_spacing << 0x5))), function at exception vector 4 too large)

.vector_5       0x9fc012a0        0x0
 *(.vector_5)
                0x00000001                ASSERT (((_vector_spacing == 0x0) || (SIZEOF (.vector_5) <= (_vector_spacing << 0x5))), function at exception vector 5 too large)

.vector_6       0x9fc012c0        0x0
 *(.vector_6)
                0x00000001                ASSERT (((_vector_spacing == 0x0) || (SIZEOF (.vector_6) <= (_vector_spacing << 0x5))), function at exception vector 6 too large)

.vector_7       0x9fc012e0        0x8
 *(.vector_7)
 .vector_7      0x9fc012e0        0x8 Objects Files\WF_Eint.o
                0x00000001                ASSERT (((_vector_spacing == 0x0) || (SIZEOF (.vector_7) <= (_vector_spacing << 0x5))), function at exception vector 7 too large)

.vector_8       0x9fc01300        0x8
 *(.vector_8)
 .vector_8      0x9fc01300        0x8 Objects Files\port.o
                0x00000001                ASSERT (((_vector_spacing == 0x0) || (SIZEOF (.vector_8) <= (_vector_spacing << 0x5))), function at exception vector 8 too large)

.vector_9       0x9fc01320        0x0
 *(.vector_9)
                0x00000001                ASSERT (((_vector_spacing == 0x0) || (SIZEOF (.vector_9) <= (_vector_spacing << 0x5))), function at exception vector 9 too large)

.vector_10      0x9fc01340        0x0
 *(.vector_10)
                0x00000001                ASSERT (((_vector_spacing == 0x0) || (SIZEOF (.vector_10) <= (_vector_spacing << 0x5))), function at exception vector 10 too large)

.vector_11      0x9fc01360        0x0
 *(.vector_11)
                0x00000001                ASSERT (((_vector_spacing == 0x0) || (SIZEOF (.vector_11) <= (_vector_spacing << 0x5))), function at exception vector 11 too large)

.vector_12      0x9fc01380        0x8
 *(.vector_12)
 .vector_12     0x9fc01380        0x8 Objects Files\Main.o
                0x00000001                ASSERT (((_vector_spacing == 0x0) || (SIZEOF (.vector_12) <= (_vector_spacing << 0x5))), function at exception vector 12 too large)

.vector_13      0x9fc013a0        0x0
 *(.vector_13)
                0x00000001                ASSERT (((_vector_spacing == 0x0) || (SIZEOF (.vector_13) <= (_vector_spacing << 0x5))), function at exception vector 13 too large)

.vector_14      0x9fc013c0        0x0
 *(.vector_14)
                0x00000001                ASSERT (((_vector_spacing == 0x0) || (SIZEOF (.vector_14) <= (_vector_spacing << 0x5))), function at exception vector 14 too large)

.vector_15      0x9fc013e0        0x0
 *(.vector_15)
                0x00000001                ASSERT (((_vector_spacing == 0x0) || (SIZEOF (.vector_15) <= (_vector_spacing << 0x5))), function at exception vector 15 too large)

.vector_16      0x9fc01400        0x0
 *(.vector_16)
                0x00000001                ASSERT (((_vector_spacing == 0x0) || (SIZEOF (.vector_16) <= (_vector_spacing << 0x5))), function at exception vector 16 too large)

.vector_17      0x9fc01420        0x0
 *(.vector_17)
                0x00000001                ASSERT (((_vector_spacing == 0x0) || (SIZEOF (.vector_17) <= (_vector_spacing << 0x5))), function at exception vector 17 too large)

.vector_18      0x9fc01440        0x0
 *(.vector_18)
                0x00000001                ASSERT (((_vector_spacing == 0x0) || (SIZEOF (.vector_18) <= (_vector_spacing << 0x5))), function at exception vector 18 too large)

.vector_19      0x9fc01460        0x0
 *(.vector_19)
                0x00000001                ASSERT (((_vector_spacing == 0x0) || (SIZEOF (.vector_19) <= (_vector_spacing << 0x5))), function at exception vector 19 too large)

.vector_20      0x9fc01480        0x0
 *(.vector_20)
                0x00000001                ASSERT (((_vector_spacing == 0x0) || (SIZEOF (.vector_20) <= (_vector_spacing << 0x5))), function at exception vector 20 too large)

.vector_21      0x9fc014a0        0x0
 *(.vector_21)
                0x00000001                ASSERT (((_vector_spacing == 0x0) || (SIZEOF (.vector_21) <= (_vector_spacing << 0x5))), function at exception vector 21 too large)

.vector_22      0x9fc014c0        0x0
 *(.vector_22)
                0x00000001                ASSERT (((_vector_spacing == 0x0) || (SIZEOF (.vector_22) <= (_vector_spacing << 0x5))), function at exception vector 22 too large)

.vector_23      0x9fc014e0        0x0
 *(.vector_23)
                0x00000001                ASSERT (((_vector_spacing == 0x0) || (SIZEOF (.vector_23) <= (_vector_spacing << 0x5))), function at exception vector 23 too large)

.vector_24      0x9fc01500        0x0
 *(.vector_24)
                0x00000001                ASSERT (((_vector_spacing == 0x0) || (SIZEOF (.vector_24) <= (_vector_spacing << 0x5))), function at exception vector 24 too large)

.vector_25      0x9fc01520        0x0
 *(.vector_25)
                0x00000001                ASSERT (((_vector_spacing == 0x0) || (SIZEOF (.vector_25) <= (_vector_spacing << 0x5))), function at exception vector 25 too large)

.vector_26      0x9fc01540        0x0
 *(.vector_26)
                0x00000001                ASSERT (((_vector_spacing == 0x0) || (SIZEOF (.vector_26) <= (_vector_spacing << 0x5))), function at exception vector 26 too large)

.vector_27      0x9fc01560        0x0
 *(.vector_27)
                0x00000001                ASSERT (((_vector_spacing == 0x0) || (SIZEOF (.vector_27) <= (_vector_spacing << 0x5))), function at exception vector 27 too large)

.vector_28      0x9fc01580        0x0
 *(.vector_28)
                0x00000001                ASSERT (((_vector_spacing == 0x0) || (SIZEOF (.vector_28) <= (_vector_spacing << 0x5))), function at exception vector 28 too large)

.vector_29      0x9fc015a0        0x0
 *(.vector_29)
                0x00000001                ASSERT (((_vector_spacing == 0x0) || (SIZEOF (.vector_29) <= (_vector_spacing << 0x5))), function at exception vector 29 too large)

.vector_30      0x9fc015c0        0x0
 *(.vector_30)
                0x00000001                ASSERT (((_vector_spacing == 0x0) || (SIZEOF (.vector_30) <= (_vector_spacing << 0x5))), function at exception vector 30 too large)

.vector_31      0x9fc015e0        0x0
 *(.vector_31)
                0x00000001                ASSERT (((_vector_spacing == 0x0) || (SIZEOF (.vector_31) <= (_vector_spacing << 0x5))), function at exception vector 31 too large)

.vector_32      0x9fc01600        0x8
 *(.vector_32)
 .vector_32     0x9fc01600        0x8 Objects Files\Main.o
                0x00000001                ASSERT (((_vector_spacing == 0x0) || (SIZEOF (.vector_32) <= (_vector_spacing << 0x5))), function at exception vector 32 too large)

.vector_33      0x9fc01620        0x0
 *(.vector_33)
                0x00000001                ASSERT (((_vector_spacing == 0x0) || (SIZEOF (.vector_33) <= (_vector_spacing << 0x5))), function at exception vector 33 too large)

.vector_34      0x9fc01640        0x0
 *(.vector_34)
                0x00000001                ASSERT (((_vector_spacing == 0x0) || (SIZEOF (.vector_34) <= (_vector_spacing << 0x5))), function at exception vector 34 too large)

.vector_35      0x9fc01660        0x0
 *(.vector_35)
                0x00000001                ASSERT (((_vector_spacing == 0x0) || (SIZEOF (.vector_35) <= (_vector_spacing << 0x5))), function at exception vector 35 too large)

.vector_36      0x9fc01680        0x0
 *(.vector_36)
                0x00000001                ASSERT (((_vector_spacing == 0x0) || (SIZEOF (.vector_36) <= (_vector_spacing << 0x5))), function at exception vector 36 too large)

.vector_37      0x9fc016a0        0x0
 *(.vector_37)
                0x00000001                ASSERT (((_vector_spacing == 0x0) || (SIZEOF (.vector_37) <= (_vector_spacing << 0x5))), function at exception vector 37 too large)

.vector_38      0x9fc016c0        0x0
 *(.vector_38)
                0x00000001                ASSERT (((_vector_spacing == 0x0) || (SIZEOF (.vector_38) <= (_vector_spacing << 0x5))), function at exception vector 38 too large)

.vector_39      0x9fc016e0        0x0
 *(.vector_39)
                0x00000001                ASSERT (((_vector_spacing == 0x0) || (SIZEOF (.vector_39) <= (_vector_spacing << 0x5))), function at exception vector 39 too large)

.vector_40      0x9fc01700        0x0
 *(.vector_40)
                0x00000001                ASSERT (((_vector_spacing == 0x0) || (SIZEOF (.vector_40) <= (_vector_spacing << 0x5))), function at exception vector 40 too large)

.vector_41      0x9fc01720        0x0
 *(.vector_41)
                0x00000001                ASSERT (((_vector_spacing == 0x0) || (SIZEOF (.vector_41) <= (_vector_spacing << 0x5))), function at exception vector 41 too large)

.vector_42      0x9fc01740        0x0
 *(.vector_42)
                0x00000001                ASSERT (((_vector_spacing == 0x0) || (SIZEOF (.vector_42) <= (_vector_spacing << 0x5))), function at exception vector 42 too large)

.vector_43      0x9fc01760        0x0
 *(.vector_43)
                0x00000001                ASSERT (((_vector_spacing == 0x0) || (SIZEOF (.vector_43) <= (_vector_spacing << 0x5))), function at exception vector 43 too large)

.vector_44      0x9fc01780        0x0
 *(.vector_44)
                0x00000001                ASSERT (((_vector_spacing == 0x0) || (SIZEOF (.vector_44) <= (_vector_spacing << 0x5))), function at exception vector 44 too large)

.vector_45      0x9fc017a0        0x0
 *(.vector_45)
                0x00000001                ASSERT (((_vector_spacing == 0x0) || (SIZEOF (.vector_45) <= (_vector_spacing << 0x5))), function at exception vector 45 too large)

.vector_46      0x9fc017c0        0x0
 *(.vector_46)
                0x00000001                ASSERT (((_vector_spacing == 0x0) || (SIZEOF (.vector_46) <= (_vector_spacing << 0x5))), function at exception vector 46 too large)

.vector_47      0x9fc017e0        0x0
 *(.vector_47)
                0x00000001                ASSERT (((_vector_spacing == 0x0) || (SIZEOF (.vector_47) <= (_vector_spacing << 0x5))), function at exception vector 47 too large)

.vector_48      0x9fc01800        0x0
 *(.vector_48)
                0x00000001                ASSERT (((_vector_spacing == 0x0) || (SIZEOF (.vector_48) <= (_vector_spacing << 0x5))), function at exception vector 48 too large)

.vector_49      0x9fc01820        0x0
 *(.vector_49)
                0x00000001                ASSERT (((_vector_spacing == 0x0) || (SIZEOF (.vector_49) <= (_vector_spacing << 0x5))), function at exception vector 49 too large)

.vector_50      0x9fc01840        0x0
 *(.vector_50)
                0x00000001                ASSERT (((_vector_spacing == 0x0) || (SIZEOF (.vector_50) <= (_vector_spacing << 0x5))), function at exception vector 50 too large)

.vector_51      0x9fc01860        0x0
 *(.vector_51)
                0x00000001                ASSERT (((_vector_spacing == 0x0) || (SIZEOF (.vector_51) <= (_vector_spacing << 0x5))), function at exception vector 51 too large)

.vector_52      0x9fc01880        0x0
 *(.vector_52)
                0x00000001                ASSERT (((_vector_spacing == 0x0) || (SIZEOF (.vector_52) <= (_vector_spacing << 0x5))), function at exception vector 52 too large)

.vector_53      0x9fc018a0        0x0
 *(.vector_53)
                0x00000001                ASSERT (((_vector_spacing == 0x0) || (SIZEOF (.vector_53) <= (_vector_spacing << 0x5))), function at exception vector 53 too large)

.vector_54      0x9fc018c0        0x0
 *(.vector_54)
                0x00000001                ASSERT (((_vector_spacing == 0x0) || (SIZEOF (.vector_54) <= (_vector_spacing << 0x5))), function at exception vector 54 too large)

.vector_55      0x9fc018e0        0x0
 *(.vector_55)
                0x00000001                ASSERT (((_vector_spacing == 0x0) || (SIZEOF (.vector_55) <= (_vector_spacing << 0x5))), function at exception vector 55 too large)

.vector_56      0x9fc01900        0x0
 *(.vector_56)
                0x00000001                ASSERT (((_vector_spacing == 0x0) || (SIZEOF (.vector_56) <= (_vector_spacing << 0x5))), function at exception vector 56 too large)

.vector_57      0x9fc01920        0x0
 *(.vector_57)
                0x00000001                ASSERT (((_vector_spacing == 0x0) || (SIZEOF (.vector_57) <= (_vector_spacing << 0x5))), function at exception vector 57 too large)

.vector_58      0x9fc01940        0x0
 *(.vector_58)
                0x00000001                ASSERT (((_vector_spacing == 0x0) || (SIZEOF (.vector_58) <= (_vector_spacing << 0x5))), function at exception vector 58 too large)

.vector_59      0x9fc01960        0x0
 *(.vector_59)
                0x00000001                ASSERT (((_vector_spacing == 0x0) || (SIZEOF (.vector_59) <= (_vector_spacing << 0x5))), function at exception vector 59 too large)

.vector_60      0x9fc01980        0x0
 *(.vector_60)
                0x00000001                ASSERT (((_vector_spacing == 0x0) || (SIZEOF (.vector_60) <= (_vector_spacing << 0x5))), function at exception vector 60 too large)

.vector_61      0x9fc019a0        0x0
 *(.vector_61)
                0x00000001                ASSERT (((_vector_spacing == 0x0) || (SIZEOF (.vector_61) <= (_vector_spacing << 0x5))), function at exception vector 61 too large)

.vector_62      0x9fc019c0        0x0
 *(.vector_62)
                0x00000001                ASSERT (((_vector_spacing == 0x0) || (SIZEOF (.vector_62) <= (_vector_spacing << 0x5))), function at exception vector 62 too large)

.vector_63      0x9fc019e0        0x0
 *(.vector_63)
                0x00000001                ASSERT (((_vector_spacing == 0x0) || (SIZEOF (.vector_63) <= (_vector_spacing << 0x5))), function at exception vector 63 too large)

.startup        0x9fc00490      0x1e0
 *(.startup)
 .startup       0x9fc00490      0x1e0 C:/Program Files/Microchip/MPLAB C32/bin/../lib/gcc/pic32mx/3.4.4/../../../../pic32mx/lib/size/crt0.o

.text           0x9d000000    0x2a100
                0x9d000000                _text_begin = .
 *(.text .stub .text.* .gnu.linkonce.t.*)
 .text          0x9d000000       0x18 C:/Program Files/Microchip/MPLAB C32/bin/../lib/gcc/pic32mx/3.4.4/../../../../pic32mx/lib/size/crt0.o
 .text          0x9d000018     0x123c Objects Files\tasks.o
                0x9d000018                xTaskGenericCreate
                0x9d000270                vTaskDelayUntil
                0x9d00040c                vTaskDelay
                0x9d000504                vTaskStartScheduler
                0x9d0005a4                vTaskEndScheduler
                0x9d0005f8                vTaskSuspendAll
                0x9d000624                xTaskResumeAll
                0x9d00080c                xTaskGetTickCount
                0x9d000850                uxTaskGetNumberOfTasks
                0x9d000874                vTaskIncrementTick
                0x9d0009e8                vTaskSwitchContext
                0x9d000b50                vTaskPlaceOnEventList
                0x9d000c14                xTaskRemoveFromEventList
                0x9d000d60                vTaskSetTimeOutState
                0x9d000d9c                xTaskCheckForTimeOut
                0x9d000e84                vTaskMissedYield
                0x9d001174                vTaskEnterCritical
                0x9d0011d0                vTaskExitCritical
 .text          0x9d001254      0x2b4 Objects Files\list.o
                0x9d001254                vListInitialise
                0x9d0012bc                vListInitialiseItem
                0x9d0012e8                vListInsertEnd
                0x9d001384                vListInsert
                0x9d001470                vListRemove
 .text          0x9d001508      0xd7c Objects Files\queue.o
                0x9d001508                xQueueCreate
                0x9d001678                xQueueGenericSend
                0x9d0018bc                xQueueGenericSendFromISR
                0x9d0019bc                xQueueGenericReceive
                0x9d001c7c                xQueueReceiveFromISR
                0x9d001d7c                uxQueueMessagesWaiting
                0x9d001dc8                uxQueueMessagesWaitingFromISR
                0x9d001dfc                vQueueDelete
                0x9d0021a8                xQueueIsQueueEmptyFromISR
                0x9d002240                xQueueIsQueueFullFromISR
 .text          0x9d002284        0x0 Objects Files\port_asm.o
 .text          0x9d002284      0x30c Objects Files\port.o
                0x9d002284                pxPortInitialiseStack
                0x9d002374                prvSetupTimerInterrupt
                0x9d002418                vPortEndScheduler
                0x9d00242c                xPortStartScheduler
                0x9d0024c4                vPortIncrementTick
                0x9d002520                uxPortSetInterruptMaskFromISR
                0x9d002560                vPortClearInterruptMaskFromISR
 .text          0x9d002590      0x134 Objects Files\heap_1.o
                0x9d002590                pvPortMalloc
                0x9d002650                vPortFree
                0x9d002674                vPortInitialiseBlocks
                0x9d002698                xPortGetFreeHeapSize
 .text          0x9d0026c4      0x204 Objects Files\WF_Config.o
                0x9d0026c4                WF_ProcessEvent
                0x9d0027a0                WF_AssertionFailed
 .text          0x9d0028c8      0x1a0 Objects Files\RTOS_init.o
                0x9d0028c8                RTOSInit
 .text          0x9d002a68      0x55c Objects Files\App_functions.o
                0x9d002a68                directionCommand
                0x9d002ab4                propulsionCommand
                0x9d002c80                SaveAuxVar
                0x9d002d74                ReadAuxVar
                0x9d002e18                UARTputs
                0x9d002edc                UARTputsIP
                0x9d002f7c                putrsUART2
 .text          0x9d002fc4      0xa1c Objects Files\App_HTTP_custom.o
                0x9d002fc4                HTTPExecuteGet
                0x9d00346c                HTTPExecutePost
                0x9d0034b8                HTTPPrint_vitesse_pwm
                0x9d003554                HTTPPrint_avant_arriere
                0x9d0035c0                HTTPPrint_direction_pwm
                0x9d00362c                HTTPPrint_zero_bute
                0x9d003698                HTTPPrint_haut_bute
                0x9d003704                HTTPPrint_bas_bute
                0x9d003770                HTTPPrint_pot_value
                0x9d0037dc                HTTPPrint_etat_save
                0x9d003908                HTTPPrint_incdir
                0x9d003974                HTTPPrint_incvit
 .text          0x9d0039e0      0xcd4 Objects Files\TCPIP_init.o
                0x9d0039e0                NetworkInit
                0x9d003a84                WF_Connect
                0x9d003d0c                DisplayIPValue
                0x9d003e5c                InitializeBoard
                0x9d0043a0                InitAppConfig
                0x9d004638                SaveAppConfig
 .text          0x9d0046b4      0x288 Objects Files\App_init.o
                0x9d0046b4                HardwareInit
                0x9d0048d0                SoftwareInit
 .text          0x9d00493c      0x21c Objects Files\Main.o
                0x9d00493c                IntTimer3Handler
                0x9d0049b4                IntUart3AHandler
                0x9d004a54                _general_exception_handler
                0x9d004a84                vApplicationStackOverflowHook
                0x9d004ad0                main
 .text          0x9d004b58      0x26c Objects Files\Task_HTTP.o
                0x9d004b58                TaskRefreshHTTP
 .text          0x9d004dc4      0x414 Objects Files\Task_control.o
                0x9d004dc4                TaskControl
 .text          0x9d0051d8      0x138 Objects Files\Task_Network.o
                0x9d0051d8                TaskNetwork
 .text          0x9d005310      0x2f4 Objects Files\WF_Eint.o
                0x9d005310                WF_EintIsDisabled
                0x9d005354                WF_EintIsPending
                0x9d0053ac                _WFInterrupt
                0x9d0054fc                WF_EintEnable
                0x9d005548                WF_EintDisable
                0x9d005574                WF_EintInit
 .text          0x9d005604      0x2b0 Objects Files\WF_Spi.o
                0x9d005604                WF_SpiInit
                0x9d0056b0                WF_SpiEnableChipSelect
                0x9d0056e4                WF_SpiDisableChipSelect
                0x9d005720                WFSpiTxRx
 .text          0x9d0058b4      0xcf4 Objects Files\WFConnectionAlgorithm.o
                0x9d0058b4                WF_CASetElements
                0x9d005aa0                WF_CAGetElements
                0x9d005b74                WF_CASetScanType
                0x9d005bb8                WF_CAGetScanType
                0x9d005bfc                WF_CASetMinChannelTime
                0x9d005c58                WF_CAGetMinChannelTime
                0x9d005cc0                WF_CASetMaxChannelTime
                0x9d005d1c                WF_CAGetMaxChannelTime
                0x9d005d84                WF_CASetProbeDelay
                0x9d005de0                WF_CAGetProbeDelay
                0x9d005e48                WF_CASetScanCount
                0x9d005e8c                WF_CAGetScanCount
                0x9d005ed0                WF_CASetRssi
                0x9d005f14                WF_CAGetRssi
                0x9d005f58                WF_CASetConnectionProfileList
                0x9d005f94                WF_CAGetConnectionProfileList
                0x9d005fd0                WF_CASetListRetryCount
                0x9d006014                WF_CAGetListRetryCount
                0x9d006058                WF_CASetEventNotificationAction
                0x9d006098                WF_CAGetEventNotificationAction
                0x9d0060d8                WF_CASetBeaconTimeoutAction
                0x9d00611c                WF_CAGetBeaconTimeoutAction
                0x9d006160                WF_CASetDeauthAction
                0x9d0061a4                WF_CAGetDeauthAction
                0x9d0061e8                WF_CASetChannelList
                0x9d006234                WF_CAGetChannelList
                0x9d0062c8                WF_CASetListenInterval
                0x9d006324                WF_CAGetListenInterval
                0x9d00638c                WF_CASetBeaconTimeout
                0x9d0063d0                WF_CAGetBeaconTimeout
                0x9d006444                GetEventNotificationMask
 .text          0x9d0065a8      0x20c Objects Files\WFConnectionManager.o
                0x9d0065a8                WF_CMConnect
                0x9d00661c                WF_CMDisconnect
                0x9d006688                WF_CMGetConnectionState
                0x9d006764                WFisConnected
                0x9d006788                SetLogicalConnectionState
 .text          0x9d0067b4      0x934 Objects Files\WFConnectionProfile.o
                0x9d0067b4                WF_CPCreate
                0x9d00682c                WF_CPDelete
                0x9d006894                WF_CPGetIds
                0x9d006900                WF_CPSetElements
                0x9d006974                WF_CPGetElements
                0x9d0069cc                WF_CPSetSsid
                0x9d006a48                WF_CPGetSsid
                0x9d006aec                WF_CPSetBssid
                0x9d006b3c                WF_CPGetBssid
                0x9d006b94                WF_CPSetNetworkType
                0x9d006bec                WF_CPGetNetworkType
                0x9d006c44                WF_CPSetSecurity
                0x9d006d28                WF_CPGetSecurity
                0x9d006e24                WF_CPSetDefaultWepKeyIndex
                0x9d006e7c                WF_CPGetDefaultWepKeyIndex
                0x9d006ed4                WF_CPSetAdHocBehavior
                0x9d006f2c                WF_CPGetAdHocBehavior
 .text          0x9d0070e8     0x1ac4 Objects Files\WFConsole.o
                0x9d0070e8                WFConsoleInit
                0x9d007190                WFConsoleProcess
                0x9d007454                WFConsoleProcessEpilogue
                0x9d007494                WFConsoleGetCmdLineArgv
                0x9d0074bc                WFConsoleGetCmdLineArgc
                0x9d00761c                Output_Monitor_Hdr
                0x9d0088cc                WFConsoleSetMsgFlag
                0x9d0088fc                WFConsoleReleaseConsoleMsg
                0x9d008938                WFConsoleIsConsoleMsgReceived
                0x9d008964                WFConsolePrintInteger
                0x9d008a88                WFConsolePrintHex
 .text          0x9d008bac        0x0 Objects Files\WFConsoleIfconfig.o
 .text          0x9d008bac        0x0 Objects Files\WFConsoleIwconfig.o
 .text          0x9d008bac        0x0 Objects Files\WFConsoleIwpriv.o
 .text          0x9d008bac      0x458 Objects Files\WFConsoleMsgHandler.o
                0x9d008bac                process_cmd
                0x9d008d68                convertAsciiToHexInPlace
 .text          0x9d009004      0x76c Objects Files\WFConsoleMsgs.o
                0x9d009004                TokenizeCmdLine
                0x9d009164                GetCmdId
                0x9d00922c                ConvertASCIIHexToBinary
                0x9d009360                ConvertASCIIUnsignedDecimalToBinary
                0x9d009490                ConvertASCIISignedDecimalToBinary
                0x9d009610                HexToBin
                0x9d0096bc                ExtractandValidateU16Range
 .text          0x9d009770        0x0 Objects Files\WFDataTxRx.o
 .text          0x9d009770      0xa54 Objects Files\WFDriverCom.o
                0x9d009770                WFProcess
                0x9d009968                Read8BitWFRegister
                0x9d0099d0                Write8BitWFRegister
                0x9d009a40                Read16BitWFRegister
                0x9d009ab8                Write16BitWFRegister
                0x9d009b34                WriteWFArray
                0x9d009bbc                ReadWFArray
                0x9d009f7c                WFEintHandler
                0x9d00a098                WFHardwareInit
 .text          0x9d00a1c4      0xc20 Objects Files\WFDriverRaw.o
                0x9d00a1c4                AllocateMgmtTxBuffer
                0x9d00a288                DeallocateMgmtRxBuffer
                0x9d00a2d4                AllocateDataTxBuffer
                0x9d00a398                DeallocateDataTxBuffer
                0x9d00a3e0                DeallocateDataRxBuffer
                0x9d00a420                RawSendTxBuffer
                0x9d00a474                RawMountRxBuffer
                0x9d00a4cc                RawToRawCopy
                0x9d00a524                PushRawWindow
                0x9d00a570                PopRawWindow
                0x9d00a5c4                ScratchMount
                0x9d00a648                ScratchUnmount
                0x9d00a6b0                RawRead
                0x9d00a728                RawWrite
                0x9d00a8ec                RawSetIndex
                0x9d00aa08                RawGetIndex
                0x9d00aa7c                RawGetByte
                0x9d00ab44                RawSetByte
                0x9d00ad74                SendRAWDataFrame
 .text          0x9d00ade4      0x728 Objects Files\WFEasyConfig.o
                0x9d00ade4                WFEasyConfigInit
                0x9d00ae74                WFEasyConfigMgr
                0x9d00b2a8                WFInitScan
                0x9d00b2d4                WFStartScan
                0x9d00b340                WFRetrieveScanResult
                0x9d00b3d0                WFScanEventHandler
                0x9d00b41c                WFDisplayScanMgr
 .text          0x9d00b50c      0x440 Objects Files\WFEventHandler.o
                0x9d00b50c                WFProcessMgmtIndicateMsg
 .text          0x9d00b94c       0xfc Objects Files\WFInit.o
                0x9d00b94c                WF_Init
 .text          0x9d00ba48     0x16f8 Objects Files\WFMac.o
                0x9d00be4c                MACProcess
                0x9d00bed8                MACInit
                0x9d00bf08                RawInit
                0x9d00bf98                MACIsLinked
                0x9d00bfc8                MACIsTxReady
                0x9d00c088                WFisTxMgmtReady
                0x9d00c114                WFFreeMgmtTx
                0x9d00c1b4                SendRAWManagementFrame
                0x9d00c200                RawGetMgmtRxBuffer
                0x9d00c29c                SetRawRxMgmtInProgress
                0x9d00c2d8                isRawRxMgmtInProgress
                0x9d00c2fc                MACDiscardRx
                0x9d00c324                MACGetFreeRxSize
                0x9d00c458                MACGetHeader
                0x9d00c65c                MACPutHeader
                0x9d00c734                MACFlush
                0x9d00c814                MACSetReadPtrInRx
                0x9d00c85c                MACSetWritePtr
                0x9d00c8a8                MACSetReadPtr
                0x9d00c8f4                MACCalcRxChecksum
                0x9d00c980                MACMemCopyAsync
                0x9d00cea0                MACIsMemCopyDone
                0x9d00cec4                MACGet
                0x9d00cf30                MACGetArray
                0x9d00d00c                MACPut
                0x9d00d084                MACPutArray
                0x9d00d100                MACPowerDown
                0x9d00d120                MACPowerUp
 .text          0x9d00d140      0x414 Objects Files\WFMgmtMsg.o
                0x9d00d140                SendMgmtMsg
                0x9d00d284                SignalMgmtConfirmReceivedEvent
                0x9d00d2ac                WaitForMgmtResponse
                0x9d00d3d8                WaitForMgmtResponseAndReadData
                0x9d00d4e8                WFSetFuncState
 .text          0x9d00d554      0x758 Objects Files\WFParamMsg.o
                0x9d00d554                WFEnableMRF24WB0MMode
                0x9d00d59c                WFGetMRF24WB0MVersion
                0x9d00d5dc                WF_GetDeviceInfo
                0x9d00d640                WF_SetMacAddress
                0x9d00d680                WF_GetMacAddress
                0x9d00d6c0                WF_SetMultiCastFilter
                0x9d00d7d8                WF_GetMultiCastFilter
                0x9d00d8d0                WF_SetTxDataConfirm
                0x9d00d914                WF_GetTxDataConfirm
                0x9d00d954                WF_SetRegionalDomain
                0x9d00d998                WF_GetRegionalDomain
                0x9d00d9d8                WF_SetRtsThreshold
                0x9d00da54                WF_GetRtsThreshold
                0x9d00dab8                WF_GetMacStats
                0x9d00db9c                SendSetParamMsg
                0x9d00dc20                SendGetParamMsg
 .text          0x9d00dcac      0x3a0 Objects Files\WFPowerSave.o
                0x9d00dcac                WFConfigureLowPowerMode
                0x9d00dd58                WF_PsPollEnable
                0x9d00dddc                WF_PsPollDisable
                0x9d00de40                WF_GetPowerSaveState
                0x9d00de70                WFisPsPollEnabled
                0x9d00ded0                WFIsPsPollActive
                0x9d00def4                EnsureWFisAwake
                0x9d00df60                WF_HibernateEnable
 .text          0x9d00e04c      0x140 Objects Files\WFScan.o
                0x9d00e04c                WF_Scan
                0x9d00e0c0                WF_ScanGetResult
 .text          0x9d00e18c      0x698 Objects Files\WFTxPower.o
                0x9d00e18c                WF_ThrottleTableSet
                0x9d00e328                WF_ThrottleTableGet
                0x9d00e4c4                WF_ThrottleTableEnable
                0x9d00e508                WF_ThrottleTableDisable
                0x9d00e5a8                WF_ThrottleTableGetState
                0x9d00e658                WF_TxPowerSetMinMax
                0x9d00e744                WF_TxPowerGetMinMax
                0x9d00e7d8                WF_TxPowerGetFactoryMax
 .text          0x9d00e824        0x0 Objects Files\ARCFOUR.o
 .text          0x9d00e824      0x5ec Objects Files\ARP.o
                0x9d00e928                ARPInit
                0x9d00e9b8                ARPProcess
                0x9d00eba8                ARPResolve
                0x9d00ec88                ARPIsResolved
                0x9d00ed88                SwapARPPacket
 .text          0x9d00ee10        0x0 Objects Files\BigInt.o
 .text          0x9d00ee10        0x0 Objects Files\BigInt_helper_C32.o
 .text          0x9d00ee10       0xec Objects Files\Delay.o
                0x9d00ee10                DelayMs
                0x9d00ee94                Delay10us
 .text          0x9d00eefc      0xb64 Objects Files\DHCPs.o
                0x9d00eefc                DHCPServerTask
 .text          0x9d00fa60        0x0 Objects Files\Hashes.o
 .text          0x9d00fa60     0x1090 Objects Files\Helpers.o
                0x9d00fa60                LFSRSeedRand
                0x9d00fae4                LFSRRand
                0x9d00fb5c                GenerateRandomDWORD
                0x9d00fd9c                StringToIPAddress
                0x9d01009c                uitoa
                0x9d0101c0                ultoa
                0x9d0102e4                hexatob
                0x9d0103b8                btohexa_high
                0x9d010428                btohexa_low
                0x9d010498                stricmppgm2ram
                0x9d010618                swaps
                0x9d010664                swapl
                0x9d0106ec                CalcIPChecksum
                0x9d0107c8                CalcIPBufferChecksum
                0x9d010900                strupr
                0x9d010990                FormatNetBIOSName
                0x9d010a48                strnchr
 .text          0x9d010af0     0x2f98 Objects Files\HTTP2.o
                0x9d010af0                HTTPPrint
                0x9d010c4c                HTTPPrint_
                0x9d010c9c                HTTPInit
                0x9d010da0                HTTPServer
                0x9d012c5c                HTTPURLDecode
                0x9d012e30                HTTPGetArg
                0x9d012efc                HTTPReadPostName
                0x9d012f78                HTTPReadPostValue
                0x9d013888                HTTPIncFile
 .text          0x9d013a88      0x148 Objects Files\ICMP.o
                0x9d013a88                ICMPProcess
 .text          0x9d013bd0      0x3bc Objects Files\IP.o
                0x9d013bd0                IPGetHeader
                0x9d013dac                IPPutHeader
                0x9d013eb8                IPSetRxBuffer
 .text          0x9d013f8c      0x48c Objects Files\LCDBlocking.o
                0x9d014068                LCDInit
                0x9d0141e8                LCDUpdate
                0x9d0143bc                LCDErase
 .text          0x9d014418     0x1ba0 Objects Files\MPFS2.o
                0x9d014418                MPFSInit
                0x9d0144b0                MPFSOpen
                0x9d0147e8                MPFSOpenID
                0x9d01497c                MPFSClose
                0x9d0149e8                MPFSGet
                0x9d014c9c                MPFSGetArray
                0x9d014f48                MPFSGetLong
                0x9d014f9c                MPFSSeek
                0x9d0153e8                MPFSFormat
                0x9d0154e0                MPFSPutArray
                0x9d01569c                MPFSPutEnd
                0x9d0157b4                MPFSGetTimestamp
                0x9d015880                MPFSGetMicrotime
                0x9d01594c                MPFSGetFlags
                0x9d015a18                MPFSGetSize
                0x9d015ae4                MPFSGetBytesRem
                0x9d015b90                MPFSGetStartAddr
                0x9d015c60                MPFSGetEndAddr
                0x9d015d44                MPFSGetFilename
                0x9d015e54                MPFSGetPosition
                0x9d015ec8                MPFSGetID
 .text          0x9d015fb8        0x0 Objects Files\NBNS.o
 .text          0x9d015fb8        0x0 Objects Files\Random.o
 .text          0x9d015fb8        0x0 Objects Files\Reboot.o
 .text          0x9d015fb8        0x0 Objects Files\RSA.o
 .text          0x9d015fb8      0x958 Objects Files\SPIEEPROM.o
                0x9d015fb8                XEEInit
                0x9d016050                XEEBeginRead
                0x9d016084                XEERead
                0x9d01610c                XEEEndRead
                0x9d016130                XEEReadArray
                0x9d01636c                XEEBeginWrite
                0x9d0163a0                XEEWrite
                0x9d01643c                XEEWriteArray
                0x9d0164bc                XEEEndWrite
                0x9d0167b8                XEEIsBusy
 .text          0x9d016910      0x2dc Objects Files\StackTsk.o
                0x9d016910                StackInit
                0x9d016980                StackTask
                0x9d016bb4                StackApplications
 .text          0x9d016bec     0x8370 Objects Files\TCP.o
                0x9d016d20                TCPInit
                0x9d017020                TCPOpen
                0x9d01740c                TCPWasReset
                0x9d0174b8                TCPIsConnected
                0x9d017514                TCPDisconnect
                0x9d017780                TCPClose
                0x9d0177f8                TCPGetRemoteInfo
                0x9d017874                TCPFlush
                0x9d0178fc                TCPIsPutReady
                0x9d017af0                TCPPut
                0x9d017e44                TCPPutArray
                0x9d0182c8                TCPPutString
                0x9d01832c                TCPGetTxFIFOFull
                0x9d0183e0                TCPDiscard
                0x9d018488                TCPIsGetReady
                0x9d018624                TCPGet
                0x9d0188ac                TCPGetArray
                0x9d018c8c                TCPGetRxFIFOFree
                0x9d018d3c                TCPPeekArray
                0x9d019000                TCPPeek
                0x9d01905c                TCPFindArrayEx
                0x9d019678                TCPFindEx
                0x9d0196ec                TCPTick
                0x9d01a57c                TCPProcess
                0x9d01e630                TCPAdjustFIFOSize
 .text          0x9d01ef5c      0x2d8 Objects Files\Tick.o
                0x9d01ef5c                TickInit
                0x9d01f078                TickGet
                0x9d01f0ac                TickGetDiv256
                0x9d01f100                TickGetDiv64K
                0x9d01f154                TickConvertToMilliseconds
                0x9d01f1ac                _T1Interrupt
 .text          0x9d01f234      0xba8 Objects Files\UDP.o
                0x9d01f234                UDPInit
                0x9d01f2a0                UDPTask
                0x9d01f2c8                UDPOpen
                0x9d01f41c                UDPClose
                0x9d01f4a8                UDPSetTxBuffer
                0x9d01f4f4                UDPSetRxBuffer
                0x9d01f544                UDPIsPutReady
                0x9d01f5d8                UDPPut
                0x9d01f668                UDPPutArray
                0x9d01f70c                UDPPutString
                0x9d01f760                UDPFlush
                0x9d01f848                UDPIsGetReady
                0x9d01f8e4                UDPGet
                0x9d01f974                UDPGetArray
                0x9d01fa40                UDPDiscard
                0x9d01fa9c                UDPProcess
 .text          0x9d01fddc      0x350 Objects Files\isr_wrapper.o
                0x9d01fddc                IntUart3AWrapper
                0x9d01ff84                IntTimer3Wrapper
 .text          0x9d02012c      0x1b0 Objects Files\Task_DebugUART.o
                0x9d02012c                TaskDebugUart
 .text          0x9d0202dc     0x4568 Objects Files\IperfApp.o
                0x9d020c70                IperfAppInit
                0x9d024624                IperfAppCall
 .text          0x9d024844      0x44c C:/Program Files/Microchip/MPLAB C32/bin/../lib/gcc/pic32mx/3.4.4/size\libgcc.a(_udivdi3.o)
                0x9d024844                __udivdi3
 .text          0x9d024c90       0x98 C:/Program Files/Microchip/MPLAB C32/bin/../lib/gcc/pic32mx/3.4.4/../../../../pic32mx/lib/size\libc.a(memcmp.o)
                0x9d024c90                memcmp
 .text          0x9d024d28      0x168 C:/Program Files/Microchip/MPLAB C32/bin/../lib/gcc/pic32mx/3.4.4/../../../../pic32mx/lib/size\libc.a(memcpy.o)
                0x9d024d28                memcpy
 .text          0x9d024e90       0xa8 C:/Program Files/Microchip/MPLAB C32/bin/../lib/gcc/pic32mx/3.4.4/../../../../pic32mx/lib/size\libc.a(memset.o)
                0x9d024e90                memset
 .text          0x9d024f38      0x120 C:/Program Files/Microchip/MPLAB C32/bin/../lib/gcc/pic32mx/3.4.4/../../../../pic32mx/lib/size\libc.a(strcmp.o)
                0x9d024f38                strcmp
 .text          0x9d025058      0x1a0 C:/Program Files/Microchip/MPLAB C32/bin/../lib/gcc/pic32mx/3.4.4/../../../../pic32mx/lib/size\libc.a(strcpy.o)
                0x9d025058                strcpy
 .text          0x9d0251f8      0x168 C:/Program Files/Microchip/MPLAB C32/bin/../lib/gcc/pic32mx/3.4.4/../../../../pic32mx/lib/size\libc.a(strlen.o)
                0x9d0251f8                strlen
 .text          0x9d025360        0x0 C:/Program Files/Microchip/MPLAB C32/bin/../lib/gcc/pic32mx/3.4.4/../../../../pic32mx/lib/size\libc.a(general-exception.o)
 .text.general_exception
                0x9d025360       0xd0 C:/Program Files/Microchip/MPLAB C32/bin/../lib/gcc/pic32mx/3.4.4/../../../../pic32mx/lib/size\libc.a(general-exception.o)
                0x9d025360                _general_exception_context
 .text          0x9d025430        0x0 C:/Program Files/Microchip/MPLAB C32/bin/../lib/gcc/pic32mx/3.4.4/../../../../pic32mx/lib/size\libc.a(strncpy.o)
 .text.strncpy  0x9d025430       0xcc C:/Program Files/Microchip/MPLAB C32/bin/../lib/gcc/pic32mx/3.4.4/../../../../pic32mx/lib/size\libc.a(strncpy.o)
                0x9d025430                strncpy
 .text          0x9d0254fc        0x0 C:/Program Files/Microchip/MPLAB C32/bin/../lib/gcc/pic32mx/3.4.4/../../../../pic32mx/lib/size\libc.a(exit.o)
 .text.exit     0x9d0254fc       0x10 C:/Program Files/Microchip/MPLAB C32/bin/../lib/gcc/pic32mx/3.4.4/../../../../pic32mx/lib/size\libc.a(exit.o)
                0x9d0254fc                exit
 .text          0x9d02550c        0x0 C:/Program Files/Microchip/MPLAB C32/bin/../lib/gcc/pic32mx/3.4.4/../../../../pic32mx/lib/size\libc.a(ctype.o)
 .text          0x9d02550c        0x0 C:/Program Files/Microchip/MPLAB C32/bin/../lib/gcc/pic32mx/3.4.4/../../../../pic32mx/lib/size\libc.a(ctypef.o)
 .text.tolower  0x9d02550c       0x20 C:/Program Files/Microchip/MPLAB C32/bin/../lib/gcc/pic32mx/3.4.4/../../../../pic32mx/lib/size\libc.a(ctypef.o)
                0x9d02550c                tolower
 .text.toupper  0x9d02552c       0x20 C:/Program Files/Microchip/MPLAB C32/bin/../lib/gcc/pic32mx/3.4.4/../../../../pic32mx/lib/size\libc.a(ctypef.o)
                0x9d02552c                toupper
 .text.isalnum  0x9d02554c       0x18 C:/Program Files/Microchip/MPLAB C32/bin/../lib/gcc/pic32mx/3.4.4/../../../../pic32mx/lib/size\libc.a(ctypef.o)
                0x9d02554c                isalnum
 .text.isalpha  0x9d025564       0x18 C:/Program Files/Microchip/MPLAB C32/bin/../lib/gcc/pic32mx/3.4.4/../../../../pic32mx/lib/size\libc.a(ctypef.o)
                0x9d025564                isalpha
 .text.isascii  0x9d02557c        0x8 C:/Program Files/Microchip/MPLAB C32/bin/../lib/gcc/pic32mx/3.4.4/../../../../pic32mx/lib/size\libc.a(ctypef.o)
                0x9d02557c                isascii
 .text.iscntrl  0x9d025584       0x18 C:/Program Files/Microchip/MPLAB C32/bin/../lib/gcc/pic32mx/3.4.4/../../../../pic32mx/lib/size\libc.a(ctypef.o)
                0x9d025584                iscntrl
 .text.isdigit  0x9d02559c       0x18 C:/Program Files/Microchip/MPLAB C32/bin/../lib/gcc/pic32mx/3.4.4/../../../../pic32mx/lib/size\libc.a(ctypef.o)
                0x9d02559c                isdigit
 .text.isgraph  0x9d0255b4       0x18 C:/Program Files/Microchip/MPLAB C32/bin/../lib/gcc/pic32mx/3.4.4/../../../../pic32mx/lib/size\libc.a(ctypef.o)
                0x9d0255b4                isgraph
 .text.islower  0x9d0255cc       0x18 C:/Program Files/Microchip/MPLAB C32/bin/../lib/gcc/pic32mx/3.4.4/../../../../pic32mx/lib/size\libc.a(ctypef.o)
                0x9d0255cc                islower
 .text.isprint  0x9d0255e4       0x18 C:/Program Files/Microchip/MPLAB C32/bin/../lib/gcc/pic32mx/3.4.4/../../../../pic32mx/lib/size\libc.a(ctypef.o)
                0x9d0255e4                isprint
 .text.ispunct  0x9d0255fc       0x18 C:/Program Files/Microchip/MPLAB C32/bin/../lib/gcc/pic32mx/3.4.4/../../../../pic32mx/lib/size\libc.a(ctypef.o)
                0x9d0255fc                ispunct
 .text.isspace  0x9d025614       0x18 C:/Program Files/Microchip/MPLAB C32/bin/../lib/gcc/pic32mx/3.4.4/../../../../pic32mx/lib/size\libc.a(ctypef.o)
                0x9d025614                isspace
 .text.isupper  0x9d02562c       0x18 C:/Program Files/Microchip/MPLAB C32/bin/../lib/gcc/pic32mx/3.4.4/../../../../pic32mx/lib/size\libc.a(ctypef.o)
                0x9d02562c                isupper
 .text.isxdigit
                0x9d025644       0x18 C:/Program Files/Microchip/MPLAB C32/bin/../lib/gcc/pic32mx/3.4.4/../../../../pic32mx/lib/size\libc.a(ctypef.o)
                0x9d025644                isxdigit
 .text.toascii  0x9d02565c        0x8 C:/Program Files/Microchip/MPLAB C32/bin/../lib/gcc/pic32mx/3.4.4/../../../../pic32mx/lib/size\libc.a(ctypef.o)
                0x9d02565c                toascii
 .text._tolower
                0x9d025664        0x8 C:/Program Files/Microchip/MPLAB C32/bin/../lib/gcc/pic32mx/3.4.4/../../../../pic32mx/lib/size\libc.a(ctypef.o)
                0x9d025664                _tolower
 .text._toupper
                0x9d02566c        0x8 C:/Program Files/Microchip/MPLAB C32/bin/../lib/gcc/pic32mx/3.4.4/../../../../pic32mx/lib/size\libc.a(ctypef.o)
                0x9d02566c                _toupper
 .text          0x9d025674        0x0 C:/Program Files/Microchip/MPLAB C32/bin/../lib/gcc/pic32mx/3.4.4/../../../../pic32mx/lib/size\libc.a(atol.o)
 .text.atol     0x9d025674        0xc C:/Program Files/Microchip/MPLAB C32/bin/../lib/gcc/pic32mx/3.4.4/../../../../pic32mx/lib/size\libc.a(atol.o)
                0x9d025674                atol
 .text          0x9d025680        0x0 C:/Program Files/Microchip/MPLAB C32/bin/../lib/gcc/pic32mx/3.4.4/../../../../pic32mx/lib/size\libc.a(strtol.o)
 .text.strtol   0x9d025680      0x1f0 C:/Program Files/Microchip/MPLAB C32/bin/../lib/gcc/pic32mx/3.4.4/../../../../pic32mx/lib/size\libc.a(strtol.o)
                0x9d025680                strtol
 .text          0x9d025870        0x0 C:/Program Files/Microchip/MPLAB C32/bin/../lib/gcc/pic32mx/3.4.4/../../../../pic32mx/lib/size\libc.a(sprintf.o)
 .text.sprintf  0x9d025870       0x34 C:/Program Files/Microchip/MPLAB C32/bin/../lib/gcc/pic32mx/3.4.4/../../../../pic32mx/lib/size\libc.a(sprintf.o)
                0x9d025870                sprintf
                0x9d025870                _isprintf
 .text          0x9d0258a4        0x0 C:/Program Files/Microchip/MPLAB C32/bin/../lib/gcc/pic32mx/3.4.4/../../../../pic32mx/lib/size\libc.a(__vsnprintf.o)
 .text.__vsnprintf
                0x9d0258a4       0x60 C:/Program Files/Microchip/MPLAB C32/bin/../lib/gcc/pic32mx/3.4.4/../../../../pic32mx/lib/size\libc.a(__vsnprintf.o)
                0x9d0258a4                __ivsnprintf
                0x9d0258a4                __vsnprintf
 .text          0x9d025904        0x0 C:/Program Files/Microchip/MPLAB C32/bin/../lib/gcc/pic32mx/3.4.4/../../../../pic32mx/lib/size\libc.a(default-bootstrap-exception-handler.o)
 .text._bootstrap_exception_handler
                0x9d025904        0x8 C:/Program Files/Microchip/MPLAB C32/bin/../lib/gcc/pic32mx/3.4.4/../../../../pic32mx/lib/size\libc.a(default-bootstrap-exception-handler.o)
                0x9d025904                _bootstrap_exception_handler
 .text          0x9d02590c        0x0 C:/Program Files/Microchip/MPLAB C32/bin/../lib/gcc/pic32mx/3.4.4/../../../../pic32mx/lib/size\libc.a(default-on-reset.o)
 .text._on_reset
                0x9d02590c        0x8 C:/Program Files/Microchip/MPLAB C32/bin/../lib/gcc/pic32mx/3.4.4/../../../../pic32mx/lib/size\libc.a(default-on-reset.o)
                0x9d02590c                _on_reset
 .text          0x9d025914        0x0 C:/Program Files/Microchip/MPLAB C32/bin/../lib/gcc/pic32mx/3.4.4/../../../../pic32mx/lib/size\libc.a(default-on-bootstrap.o)
 .text._on_bootstrap
                0x9d025914        0x8 C:/Program Files/Microchip/MPLAB C32/bin/../lib/gcc/pic32mx/3.4.4/../../../../pic32mx/lib/size\libc.a(default-on-bootstrap.o)
                0x9d025914                _on_bootstrap
 .text          0x9d02591c       0x18 C:/Program Files/Microchip/MPLAB C32/bin/../lib/gcc/pic32mx/3.4.4/../../../../pic32mx/lib/size\libc.a(default-nmi-handler.o)
                0x9d02591c                _nmi_handler
 .text          0x9d025934        0x0 C:/Program Files/Microchip/MPLAB C32/bin/../lib/gcc/pic32mx/3.4.4/../../../../pic32mx/lib/size\libc.a(_exit.o)
 .text._exit    0x9d025934        0x8 C:/Program Files/Microchip/MPLAB C32/bin/../lib/gcc/pic32mx/3.4.4/../../../../pic32mx/lib/size\libc.a(_exit.o)
                0x9d025934                _exit
 .text          0x9d02593c        0x0 C:/Program Files/Microchip/MPLAB C32/bin/../lib/gcc/pic32mx/3.4.4/../../../../pic32mx/lib/size\libc.a(errno.o)
 .text          0x9d02593c        0x0 C:/Program Files/Microchip/MPLAB C32/bin/../lib/gcc/pic32mx/3.4.4/../../../../pic32mx/lib/size\libc.a(_doprnt.o)
 .text.__sputn  0x9d02593c       0x70 C:/Program Files/Microchip/MPLAB C32/bin/../lib/gcc/pic32mx/3.4.4/../../../../pic32mx/lib/size\libc.a(_doprnt.o)
 .text.repl     0x9d0259ac       0x7c C:/Program Files/Microchip/MPLAB C32/bin/../lib/gcc/pic32mx/3.4.4/../../../../pic32mx/lib/size\libc.a(_doprnt.o)
 .text._outcnvrt
                0x9d025a28       0xe4 C:/Program Files/Microchip/MPLAB C32/bin/../lib/gcc/pic32mx/3.4.4/../../../../pic32mx/lib/size\libc.a(_doprnt.o)
 .text.rounded  0x9d025b0c      0x140 C:/Program Files/Microchip/MPLAB C32/bin/../lib/gcc/pic32mx/3.4.4/../../../../pic32mx/lib/size\libc.a(_doprnt.o)
 .text.vfprintf
                0x9d025c4c     0x14ac C:/Program Files/Microchip/MPLAB C32/bin/../lib/gcc/pic32mx/3.4.4/../../../../pic32mx/lib/size\libc.a(_doprnt.o)
                0x9d025c4c                _ivfprintf
                0x9d025c4c                vfprintf
 .text._io_exit
                0x9d0270f8       0x40 C:/Program Files/Microchip/MPLAB C32/bin/../lib/gcc/pic32mx/3.4.4/../../../../pic32mx/lib/size\libc.a(_doprnt.o)
                0x9d0270f8                _io_exit
 .text          0x9d027138        0x0 C:/Program Files/Microchip/MPLAB C32/bin/../lib/gcc/pic32mx/3.4.4/../../../../pic32mx/lib/size\libc.a(_iobdata.o)
 .text          0x9d027138        0x0 C:/Program Files/Microchip/MPLAB C32/bin/../lib/gcc/pic32mx/3.4.4/../../../../pic32mx/lib/size\libc.a(_iobfuncs.o)
 .text._filbuf_simple
                0x9d027138       0x28 C:/Program Files/Microchip/MPLAB C32/bin/../lib/gcc/pic32mx/3.4.4/../../../../pic32mx/lib/size\libc.a(_iobfuncs.o)
                0x9d027138                _filbuf_simple
 .text._fflush_simple
                0x9d027160       0x68 C:/Program Files/Microchip/MPLAB C32/bin/../lib/gcc/pic32mx/3.4.4/../../../../pic32mx/lib/size\libc.a(_iobfuncs.o)
                0x9d027160                _fflush_simple
 .text._flsbuf_simple
                0x9d0271c8       0xe8 C:/Program Files/Microchip/MPLAB C32/bin/../lib/gcc/pic32mx/3.4.4/../../../../pic32mx/lib/size\libc.a(_iobfuncs.o)
                0x9d0271c8                _flsbuf_simple
 .text._fwrite_simple
                0x9d0272b0       0x84 C:/Program Files/Microchip/MPLAB C32/bin/../lib/gcc/pic32mx/3.4.4/../../../../pic32mx/lib/size\libc.a(_iobfuncs.o)
                0x9d0272b0                _fwrite_simple
 .text._fsync_simple
                0x9d027334       0x34 C:/Program Files/Microchip/MPLAB C32/bin/../lib/gcc/pic32mx/3.4.4/../../../../pic32mx/lib/size\libc.a(_iobfuncs.o)
                0x9d027334                _fsync_simple
 .text._io_exit
                0x9d027368       0x40 C:/Program Files/Microchip/MPLAB C32/bin/../lib/gcc/pic32mx/3.4.4/../../../../pic32mx/lib/size\libc.a(_iobfuncs.o)
 .text          0x9d0273a8        0x0 C:/Program Files/Microchip/MPLAB C32/bin/../lib/gcc/pic32mx/3.4.4/../../../../pic32mx/lib/size\libc.a(_iobstring.o)
 .text._filbuf_string
                0x9d0273a8        0x8 C:/Program Files/Microchip/MPLAB C32/bin/../lib/gcc/pic32mx/3.4.4/../../../../pic32mx/lib/size\libc.a(_iobstring.o)
 .text._flsbuf_string
                0x9d0273b0        0x8 C:/Program Files/Microchip/MPLAB C32/bin/../lib/gcc/pic32mx/3.4.4/../../../../pic32mx/lib/size\libc.a(_iobstring.o)
 .text._fflush_string
                0x9d0273b8        0x8 C:/Program Files/Microchip/MPLAB C32/bin/../lib/gcc/pic32mx/3.4.4/../../../../pic32mx/lib/size\libc.a(_iobstring.o)
 .text._fwrite_string
                0x9d0273c0        0x8 C:/Program Files/Microchip/MPLAB C32/bin/../lib/gcc/pic32mx/3.4.4/../../../../pic32mx/lib/size\libc.a(_iobstring.o)
 .text._fsync_string
                0x9d0273c8        0x8 C:/Program Files/Microchip/MPLAB C32/bin/../lib/gcc/pic32mx/3.4.4/../../../../pic32mx/lib/size\libc.a(_iobstring.o)
 .text          0x9d0273d0        0x0 C:/Program Files/Microchip/MPLAB C32/bin/../lib/gcc/pic32mx/3.4.4/../../../../pic32mx/lib/size\libc.a(fputc.o)
 .text.fputc    0x9d0273d0       0xac C:/Program Files/Microchip/MPLAB C32/bin/../lib/gcc/pic32mx/3.4.4/../../../../pic32mx/lib/size\libc.a(fputc.o)
                0x9d0273d0                fputc
 .text.putc     0x9d02747c        0x8 C:/Program Files/Microchip/MPLAB C32/bin/../lib/gcc/pic32mx/3.4.4/../../../../pic32mx/lib/size\libc.a(fputc.o)
                0x9d02747c                putc
 .text.putchar  0x9d027484       0x10 C:/Program Files/Microchip/MPLAB C32/bin/../lib/gcc/pic32mx/3.4.4/../../../../pic32mx/lib/size\libc.a(fputc.o)
                0x9d027484                putchar
 .text          0x9d027494        0x0 C:/Program Files/Microchip/MPLAB C32/bin/../lib/gcc/pic32mx/3.4.4/../../../../pic32mx/lib/size\libc.a(stubs.o)
 .text._weak_pthread_mutex_init
                0x9d027494        0x8 C:/Program Files/Microchip/MPLAB C32/bin/../lib/gcc/pic32mx/3.4.4/../../../../pic32mx/lib/size\libc.a(stubs.o)
                0x9d027494                _weak_pthread_mutex_init
                0x9d027494                pthread_mutex_init
 .text._weak_pthread_mutex_destroy
                0x9d02749c        0x8 C:/Program Files/Microchip/MPLAB C32/bin/../lib/gcc/pic32mx/3.4.4/../../../../pic32mx/lib/size\libc.a(stubs.o)
                0x9d02749c                pthread_mutex_destroy
                0x9d02749c                _weak_pthread_mutex_destroy
 .text._weak_pthread_mutex_lock
                0x9d0274a4        0x8 C:/Program Files/Microchip/MPLAB C32/bin/../lib/gcc/pic32mx/3.4.4/../../../../pic32mx/lib/size\libc.a(stubs.o)
                0x9d0274a4                pthread_mutex_lock
                0x9d0274a4                _weak_pthread_mutex_lock
 .text._weak_pthread_mutex_trylock
                0x9d0274ac        0x8 C:/Program Files/Microchip/MPLAB C32/bin/../lib/gcc/pic32mx/3.4.4/../../../../pic32mx/lib/size\libc.a(stubs.o)
                0x9d0274ac                _weak_pthread_mutex_trylock
                0x9d0274ac                pthread_mutex_trylock
 .text._weak_pthread_mutex_unlock
                0x9d0274b4        0x8 C:/Program Files/Microchip/MPLAB C32/bin/../lib/gcc/pic32mx/3.4.4/../../../../pic32mx/lib/size\libc.a(stubs.o)
                0x9d0274b4                pthread_mutex_unlock
                0x9d0274b4                _weak_pthread_mutex_unlock
 .text._weak_pthread_mutex_setname_np
                0x9d0274bc        0x8 C:/Program Files/Microchip/MPLAB C32/bin/../lib/gcc/pic32mx/3.4.4/../../../../pic32mx/lib/size\libc.a(stubs.o)
                0x9d0274bc                _weak_pthread_mutex_setname_np
                0x9d0274bc                pthread_mutex_setname_np
 .text._weak_pthread_mutexattr_init
                0x9d0274c4        0x8 C:/Program Files/Microchip/MPLAB C32/bin/../lib/gcc/pic32mx/3.4.4/../../../../pic32mx/lib/size\libc.a(stubs.o)
                0x9d0274c4                pthread_mutexattr_init
                0x9d0274c4                _weak_pthread_mutexattr_init
 .text._weak_pthread_mutexattr_destroy
                0x9d0274cc        0x8 C:/Program Files/Microchip/MPLAB C32/bin/../lib/gcc/pic32mx/3.4.4/../../../../pic32mx/lib/size\libc.a(stubs.o)
                0x9d0274cc                _weak_pthread_mutexattr_destroy
                0x9d0274cc                pthread_mutexattr_destroy
 .text._weak_pthread_mutexattr_setname_np
                0x9d0274d4        0x8 C:/Program Files/Microchip/MPLAB C32/bin/../lib/gcc/pic32mx/3.4.4/../../../../pic32mx/lib/size\libc.a(stubs.o)
                0x9d0274d4                pthread_mutexattr_setname_np
                0x9d0274d4                _weak_pthread_mutexattr_setname_np
 .text._weak_pthread_mutexattr_settype_np
                0x9d0274dc        0x8 C:/Program Files/Microchip/MPLAB C32/bin/../lib/gcc/pic32mx/3.4.4/../../../../pic32mx/lib/size\libc.a(stubs.o)
                0x9d0274dc                pthread_mutexattr_settype_np
                0x9d0274dc                _weak_pthread_mutexattr_settype_np
 .text._weak_pthread_sysconf_np
                0x9d0274e4        0x8 C:/Program Files/Microchip/MPLAB C32/bin/../lib/gcc/pic32mx/3.4.4/../../../../pic32mx/lib/size\libc.a(stubs.o)
                0x9d0274e4                _weak_pthread_sysconf_np
                0x9d0274e4                pthread_sysconf_np
 .text._weak_pthread_sigdisable_np
                0x9d0274ec        0x8 C:/Program Files/Microchip/MPLAB C32/bin/../lib/gcc/pic32mx/3.4.4/../../../../pic32mx/lib/size\libc.a(stubs.o)
                0x9d0274ec                _weak_pthread_sigdisable_np
                0x9d0274ec                pthread_sigdisable_np
 .text._weak_pthread_sigrestore_np
                0x9d0274f4        0x8 C:/Program Files/Microchip/MPLAB C32/bin/../lib/gcc/pic32mx/3.4.4/../../../../pic32mx/lib/size\libc.a(stubs.o)
                0x9d0274f4                pthread_sigrestore_np
                0x9d0274f4                _weak_pthread_sigrestore_np
 .text._weak__pthread_cleanup_push
                0x9d0274fc        0x8 C:/Program Files/Microchip/MPLAB C32/bin/../lib/gcc/pic32mx/3.4.4/../../../../pic32mx/lib/size\libc.a(stubs.o)
                0x9d0274fc                _weak__pthread_cleanup_push
                0x9d0274fc                _pthread_cleanup_push
 .text._weak__pthread_cleanup_pop
                0x9d027504        0x8 C:/Program Files/Microchip/MPLAB C32/bin/../lib/gcc/pic32mx/3.4.4/../../../../pic32mx/lib/size\libc.a(stubs.o)
                0x9d027504                _pthread_cleanup_pop
                0x9d027504                _weak__pthread_cleanup_pop
 .text._weak__pthread_cleanup_push_defer
                0x9d02750c        0x8 C:/Program Files/Microchip/MPLAB C32/bin/../lib/gcc/pic32mx/3.4.4/../../../../pic32mx/lib/size\libc.a(stubs.o)
                0x9d02750c                _weak__pthread_cleanup_push_defer
                0x9d02750c                _pthread_cleanup_push_defer
 .text._weak__pthread_cleanup_pop_restore
                0x9d027514        0x8 C:/Program Files/Microchip/MPLAB C32/bin/../lib/gcc/pic32mx/3.4.4/../../../../pic32mx/lib/size\libc.a(stubs.o)
                0x9d027514                _weak__pthread_cleanup_pop_restore
                0x9d027514                _pthread_cleanup_pop_restore
 .text._weak_pthread_once
                0x9d02751c       0x2c C:/Program Files/Microchip/MPLAB C32/bin/../lib/gcc/pic32mx/3.4.4/../../../../pic32mx/lib/size\libc.a(stubs.o)
                0x9d02751c                _weak_pthread_once
                0x9d02751c                _pthread_once
                0x9d02751c                pthread_once
 .text._weak_pthread_key_create
                0x9d027548        0x8 C:/Program Files/Microchip/MPLAB C32/bin/../lib/gcc/pic32mx/3.4.4/../../../../pic32mx/lib/size\libc.a(stubs.o)
                0x9d027548                _weak_pthread_key_create
                0x9d027548                pthread_key_create
 .text._weak_pthread_setspecific
                0x9d027550        0x8 C:/Program Files/Microchip/MPLAB C32/bin/../lib/gcc/pic32mx/3.4.4/../../../../pic32mx/lib/size\libc.a(stubs.o)
                0x9d027550                pthread_setspecific
                0x9d027550                _weak_pthread_setspecific
 .text._weak_pthread_getspecific
                0x9d027558        0x8 C:/Program Files/Microchip/MPLAB C32/bin/../lib/gcc/pic32mx/3.4.4/../../../../pic32mx/lib/size\libc.a(stubs.o)
                0x9d027558                pthread_getspecific
                0x9d027558                _weak_pthread_getspecific
 .text._weak__libc_private_storage
                0x9d027560        0x8 C:/Program Files/Microchip/MPLAB C32/bin/../lib/gcc/pic32mx/3.4.4/../../../../pic32mx/lib/size\libc.a(stubs.o)
                0x9d027560                _libc_private_storage
                0x9d027560                _weak__libc_private_storage
 .text          0x9d027568        0x0 C:/Program Files/Microchip/MPLAB C32/bin/../lib/gcc/pic32mx/3.4.4/../../../../pic32mx/lib/size\libc.a(_mon_getc.o)
 .text._mon_getc
                0x9d027568        0x8 C:/Program Files/Microchip/MPLAB C32/bin/../lib/gcc/pic32mx/3.4.4/../../../../pic32mx/lib/size\libc.a(_mon_getc.o)
                0x9d027568                _mon_getc
 .text          0x9d027570        0x0 C:/Program Files/Microchip/MPLAB C32/bin/../lib/gcc/pic32mx/3.4.4/../../../../pic32mx/lib/size\libc.a(_mon_write.o)
 .text._mon_write
                0x9d027570       0x4c C:/Program Files/Microchip/MPLAB C32/bin/../lib/gcc/pic32mx/3.4.4/../../../../pic32mx/lib/size\libc.a(_mon_write.o)
                0x9d027570                _mon_write
 .text          0x9d0275bc        0x0 C:/Program Files/Microchip/MPLAB C32/bin/../lib/gcc/pic32mx/3.4.4/../../../../pic32mx/lib/size\libc.a(fullexit.o)
 .text._fullexit
                0x9d0275bc       0xa4 C:/Program Files/Microchip/MPLAB C32/bin/../lib/gcc/pic32mx/3.4.4/../../../../pic32mx/lib/size\libc.a(fullexit.o)
                0x9d0275bc                _fullexit
 .text          0x9d027660        0x0 C:/Program Files/Microchip/MPLAB C32/bin/../lib/gcc/pic32mx/3.4.4/../../../../pic32mx/lib/size\libc.a(_mon_putc.o)
 .text._mon_putc
                0x9d027660       0x28 C:/Program Files/Microchip/MPLAB C32/bin/../lib/gcc/pic32mx/3.4.4/../../../../pic32mx/lib/size\libc.a(_mon_putc.o)
                0x9d027660                _mon_putc
 .text          0x9d027688      0x5c8 C:/Program Files/Microchip/MPLAB C32/bin/../lib/gcc/pic32mx/3.4.4/../../../../pic32mx/lib/size\libm.a(mod32.o)
                0x9d027688                fmod
                0x9d027688                dpfmod
                0x9d027928                frexp
                0x9d027928                dpfrexp
                0x9d0279cc                __mchp_ldexp
                0x9d0279cc                dpldexp
                0x9d027b34                modf
                0x9d027b34                dpmodf
 .text          0x9d027c50     0x1128 C:/Program Files/Microchip/MPLAB C32/bin/../lib/gcc/pic32mx/3.4.4/../../../../pic32mx/lib/size\libm.a(dp32.o)
                0x9d027c50                __subdf3
                0x9d027c50                dpsub
                0x9d027c58                dpadd
                0x9d027c58                __adddf3
                0x9d02807c                dpmul
                0x9d02807c                __muldf3
                0x9d0283a4                dpdiv
                0x9d0283a4                __divdf3
                0x9d028858                __floatsidf
                0x9d028858                litodp
                0x9d0288cc                ultodp
                0x9d02891c                fptodp
                0x9d02891c                __extendsfdf2
                0x9d0289c0                __truncdfsf2
                0x9d0289c0                dptofp
                0x9d028ab8                dptoli
                0x9d028ab8                __fixdfsi
                0x9d028b40                __fixunsdfsi
                0x9d028b40                dptoul
                0x9d028bc4                __nedf2
                0x9d028bc4                __gtdf2
                0x9d028bc4                __ledf2
                0x9d028bc4                __ltdf2
                0x9d028bc4                __gedf2
                0x9d028bc4                dpcmp
                0x9d028bc4                __eqdf2
                0x9d028ce8                __negdf2
                0x9d028d00                fabs
                0x9d028d00                dpfabs
                0x9d028d1c                nan
                0x9d028d1c                dpnan
 .text          0x9d028d78      0x8ec C:/Program Files/Microchip/MPLAB C32/bin/../lib/gcc/pic32mx/3.4.4/../../../../pic32mx/lib/size\libm.a(fp32.o)
                0x9d028d78                __subsf3
                0x9d028d78                fpsub
                0x9d028d80                fpadd
                0x9d028d80                __addsf3
                0x9d028fec                fpmul
                0x9d028fec                __mulsf3
                0x9d0291a4                fpdiv
                0x9d0291a4                __divsf3
                0x9d0293d0                litofp
                0x9d0293d0                sitofp
                0x9d0293d0                __floatsisf
                0x9d02942c                uitofp
                0x9d02942c                ultofp
                0x9d029478                fptosi
                0x9d029478                fptoli
                0x9d029478                __fixsfsi
                0x9d0294f0                __fixunssfsi
                0x9d0294f0                fptoul
                0x9d0294f0                fptoui
                0x9d029564                __eqsf2
                0x9d029564                __nesf2
                0x9d029564                __lesf2
                0x9d029564                __ltsf2
                0x9d029564                fpcmp
                0x9d029564                __gtsf2
                0x9d029564                __gesf2
                0x9d0295f8                fpfabs
                0x9d0295f8                fabsf
                0x9d029608                __negsf2
                0x9d029618                fpnan
                0x9d029618                nanf
 .text          0x9d029664        0x0 C:/Program Files/Microchip/MPLAB C32/bin/../lib/gcc/pic32mx/3.4.4/../../../../pic32mx/lib/size\libmchp_peripheral_32MX795F512L.a(soft_reset_lib.o)
 .text.SoftReset
                0x9d029664       0x78 C:/Program Files/Microchip/MPLAB C32/bin/../lib/gcc/pic32mx/3.4.4/../../../../pic32mx/lib/size\libmchp_peripheral_32MX795F512L.a(soft_reset_lib.o)
                0x9d029664                SoftReset
 .text          0x9d0296dc        0x0 C:/Program Files/Microchip/MPLAB C32/bin/../lib/gcc/pic32mx/3.4.4/../../../../pic32mx/lib/size\libmchp_peripheral_32MX795F512L.a(pcache.o)
 .text.CheKseg0CacheOff
                0x9d0296dc       0x18 C:/Program Files/Microchip/MPLAB C32/bin/../lib/gcc/pic32mx/3.4.4/../../../../pic32mx/lib/size\libmchp_peripheral_32MX795F512L.a(pcache.o)
                0x9d0296dc                CheKseg0CacheOff
 .text.CheKseg0CacheOn
                0x9d0296f4       0x18 C:/Program Files/Microchip/MPLAB C32/bin/../lib/gcc/pic32mx/3.4.4/../../../../pic32mx/lib/size\libmchp_peripheral_32MX795F512L.a(pcache.o)
                0x9d0296f4                CheKseg0CacheOn
 .text          0x9d02970c        0x0 C:/Program Files/Microchip/MPLAB C32/bin/../lib/gcc/pic32mx/3.4.4/../../../../pic32mx/lib/size\libmchp_peripheral_32MX795F512L.a(set_core_sw0_leg_lib.o)
 .text.SetCoreSW0
                0x9d02970c       0x10 C:/Program Files/Microchip/MPLAB C32/bin/../lib/gcc/pic32mx/3.4.4/../../../../pic32mx/lib/size\libmchp_peripheral_32MX795F512L.a(set_core_sw0_leg_lib.o)
                0x9d02970c                SetCoreSW0
 .text          0x9d02971c        0x0 C:/Program Files/Microchip/MPLAB C32/bin/../lib/gcc/pic32mx/3.4.4/../../../../pic32mx/lib/size\libmchp_peripheral_32MX795F512L.a(int_disable_interrupts_lib.o)
 .text.INTDisableInterrupts
                0x9d02971c        0x8 C:/Program Files/Microchip/MPLAB C32/bin/../lib/gcc/pic32mx/3.4.4/../../../../pic32mx/lib/size\libmchp_peripheral_32MX795F512L.a(int_disable_interrupts_lib.o)
                0x9d02971c                INTDisableInterrupts
 .text          0x9d029724        0x0 C:/Program Files/Microchip/MPLAB C32/bin/../lib/gcc/pic32mx/3.4.4/../../../../pic32mx/lib/size\libmchp_peripheral_32MX795F512L.a(int_restore_interrupts_lib.o)
 .text.INTRestoreInterrupts
                0x9d029724       0x1c C:/Program Files/Microchip/MPLAB C32/bin/../lib/gcc/pic32mx/3.4.4/../../../../pic32mx/lib/size\libmchp_peripheral_32MX795F512L.a(int_restore_interrupts_lib.o)
                0x9d029724                INTRestoreInterrupts
 .text          0x9d029740        0x0 C:/Program Files/Microchip/MPLAB C32/bin/../lib/gcc/pic32mx/3.4.4/../../../../pic32mx/lib/size\libmchp_peripheral_32MX795F512L.a(int_enable_mv_int_lib.o)
 .text.INTEnableSystemMultiVectoredInt
                0x9d029740       0x34 C:/Program Files/Microchip/MPLAB C32/bin/../lib/gcc/pic32mx/3.4.4/../../../../pic32mx/lib/size\libmchp_peripheral_32MX795F512L.a(int_enable_mv_int_lib.o)
                0x9d029740                INTEnableSystemMultiVectoredInt
 .text          0x9d029774        0x0 C:/Program Files/Microchip/MPLAB C32/bin/../lib/gcc/pic32mx/3.4.4/../../../../pic32mx/lib/size\libmchp_peripheral_32MX795F512L.a(int_tbl_lib.o)
 .text.INTClearFlag
                0x9d029774       0x28 C:/Program Files/Microchip/MPLAB C32/bin/../lib/gcc/pic32mx/3.4.4/../../../../pic32mx/lib/size\libmchp_peripheral_32MX795F512L.a(int_tbl_lib.o)
                0x9d029774                INTClearFlag
 .text.INTSetFlag
                0x9d02979c       0x28 C:/Program Files/Microchip/MPLAB C32/bin/../lib/gcc/pic32mx/3.4.4/../../../../pic32mx/lib/size\libmchp_peripheral_32MX795F512L.a(int_tbl_lib.o)
                0x9d02979c                INTSetFlag
 .text.INTGetFlag
                0x9d0297c4       0x28 C:/Program Files/Microchip/MPLAB C32/bin/../lib/gcc/pic32mx/3.4.4/../../../../pic32mx/lib/size\libmchp_peripheral_32MX795F512L.a(int_tbl_lib.o)
                0x9d0297c4                INTGetFlag
 .text.INTEnable
                0x9d0297ec       0x38 C:/Program Files/Microchip/MPLAB C32/bin/../lib/gcc/pic32mx/3.4.4/../../../../pic32mx/lib/size\libmchp_peripheral_32MX795F512L.a(int_tbl_lib.o)
                0x9d0297ec                INTEnable
 .text.INTGetEnable
                0x9d029824       0x28 C:/Program Files/Microchip/MPLAB C32/bin/../lib/gcc/pic32mx/3.4.4/../../../../pic32mx/lib/size\libmchp_peripheral_32MX795F512L.a(int_tbl_lib.o)
                0x9d029824                INTGetEnable
 .text.INTSetVectorPriority
                0x9d02984c       0x3c C:/Program Files/Microchip/MPLAB C32/bin/../lib/gcc/pic32mx/3.4.4/../../../../pic32mx/lib/size\libmchp_peripheral_32MX795F512L.a(int_tbl_lib.o)
                0x9d02984c                INTSetVectorPriority
 .text.INTGetVectorPriority
                0x9d029888       0x2c C:/Program Files/Microchip/MPLAB C32/bin/../lib/gcc/pic32mx/3.4.4/../../../../pic32mx/lib/size\libmchp_peripheral_32MX795F512L.a(int_tbl_lib.o)
                0x9d029888                INTGetVectorPriority
 .text.INTSetVectorSubPriority
                0x9d0298b4       0x3c C:/Program Files/Microchip/MPLAB C32/bin/../lib/gcc/pic32mx/3.4.4/../../../../pic32mx/lib/size\libmchp_peripheral_32MX795F512L.a(int_tbl_lib.o)
                0x9d0298b4                INTSetVectorSubPriority
 .text.INTGetVectorSubPriority
                0x9d0298f0       0x2c C:/Program Files/Microchip/MPLAB C32/bin/../lib/gcc/pic32mx/3.4.4/../../../../pic32mx/lib/size\libmchp_peripheral_32MX795F512L.a(int_tbl_lib.o)
                0x9d0298f0                INTGetVectorSubPriority
 .text          0x9d02991c        0x0 C:/Program Files/Microchip/MPLAB C32/bin/../lib/gcc/pic32mx/3.4.4/../../../../pic32mx/lib/size\libmchp_peripheral_32MX795F512L.a(port_set_pins_digital_out_lib.o)
 .text.PORTSetPinsDigitalOut
                0x9d02991c       0x3c C:/Program Files/Microchip/MPLAB C32/bin/../lib/gcc/pic32mx/3.4.4/../../../../pic32mx/lib/size\libmchp_peripheral_32MX795F512L.a(port_set_pins_digital_out_lib.o)
                0x9d02991c                PORTSetPinsDigitalOut
 .text          0x9d029958        0x0 C:/Program Files/Microchip/MPLAB C32/bin/../lib/gcc/pic32mx/3.4.4/../../../../pic32mx/lib/size\libmchp_peripheral_32MX795F512L.a(port_clear_bits_lib.o)
 .text.PORTClearBits
                0x9d029958       0x24 C:/Program Files/Microchip/MPLAB C32/bin/../lib/gcc/pic32mx/3.4.4/../../../../pic32mx/lib/size\libmchp_peripheral_32MX795F512L.a(port_clear_bits_lib.o)
                0x9d029958                PORTClearBits
 .text          0x9d02997c        0x0 C:/Program Files/Microchip/MPLAB C32/bin/../lib/gcc/pic32mx/3.4.4/../../../../pic32mx/lib/size\libmchp_peripheral_32MX795F512L.a(port_set_bits_lib.o)
 .text.PORTSetBits
                0x9d02997c       0x24 C:/Program Files/Microchip/MPLAB C32/bin/../lib/gcc/pic32mx/3.4.4/../../../../pic32mx/lib/size\libmchp_peripheral_32MX795F512L.a(port_set_bits_lib.o)
                0x9d02997c                PORTSetBits
 .text          0x9d0299a0        0x0 C:/Program Files/Microchip/MPLAB C32/bin/../lib/gcc/pic32mx/3.4.4/../../../../pic32mx/lib/size\libmchp_peripheral_32MX795F512L.a(_ports_tbl_libp.o)
 .text          0x9d0299a0        0x0 C:/Program Files/Microchip/MPLAB C32/bin/../lib/gcc/pic32mx/3.4.4/../../../../pic32mx/lib/size\libmchp_peripheral_32MX795F512L.a(uart_lib.o)
 .text.UARTEnable
                0x9d0299a0       0x70 C:/Program Files/Microchip/MPLAB C32/bin/../lib/gcc/pic32mx/3.4.4/../../../../pic32mx/lib/size\libmchp_peripheral_32MX795F512L.a(uart_lib.o)
                0x9d0299a0                UARTEnable
 .text.UARTConfigure
                0x9d029a10       0x3c C:/Program Files/Microchip/MPLAB C32/bin/../lib/gcc/pic32mx/3.4.4/../../../../pic32mx/lib/size\libmchp_peripheral_32MX795F512L.a(uart_lib.o)
                0x9d029a10                UARTConfigure
 .text.UARTSetFifoMode
                0x9d029a4c       0x28 C:/Program Files/Microchip/MPLAB C32/bin/../lib/gcc/pic32mx/3.4.4/../../../../pic32mx/lib/size\libmchp_peripheral_32MX795F512L.a(uart_lib.o)
                0x9d029a4c                UARTSetFifoMode
 .text.UARTSetDataRate
                0x9d029a74       0x5c C:/Program Files/Microchip/MPLAB C32/bin/../lib/gcc/pic32mx/3.4.4/../../../../pic32mx/lib/size\libmchp_peripheral_32MX795F512L.a(uart_lib.o)
                0x9d029a74                UARTSetDataRate
 .text.UARTGetDataRate
                0x9d029ad0       0x40 C:/Program Files/Microchip/MPLAB C32/bin/../lib/gcc/pic32mx/3.4.4/../../../../pic32mx/lib/size\libmchp_peripheral_32MX795F512L.a(uart_lib.o)
                0x9d029ad0                UARTGetDataRate
 .text.UARTSetLineControl
                0x9d029b10       0x28 C:/Program Files/Microchip/MPLAB C32/bin/../lib/gcc/pic32mx/3.4.4/../../../../pic32mx/lib/size\libmchp_peripheral_32MX795F512L.a(uart_lib.o)
                0x9d029b10                UARTSetLineControl
 .text.UARTSetAddress
                0x9d029b38       0x3c C:/Program Files/Microchip/MPLAB C32/bin/../lib/gcc/pic32mx/3.4.4/../../../../pic32mx/lib/size\libmchp_peripheral_32MX795F512L.a(uart_lib.o)
                0x9d029b38                UARTSetAddress
 .text.UARTWatchForAddress
                0x9d029b74       0x38 C:/Program Files/Microchip/MPLAB C32/bin/../lib/gcc/pic32mx/3.4.4/../../../../pic32mx/lib/size\libmchp_peripheral_32MX795F512L.a(uart_lib.o)
                0x9d029b74                UARTWatchForAddress
 .text          0x9d029bac        0x0 C:/Program Files/Microchip/MPLAB C32/bin/../lib/gcc/pic32mx/3.4.4/../../../../pic32mx/lib/size\libmchp_peripheral_32MX795F512L.a(puts_uartx_lib_legacy.o)
 .text.putsUART1
                0x9d029bac       0x50 C:/Program Files/Microchip/MPLAB C32/bin/../lib/gcc/pic32mx/3.4.4/../../../../pic32mx/lib/size\libmchp_peripheral_32MX795F512L.a(puts_uartx_lib_legacy.o)
                0x9d029bac                putsUART1
 .text.putsUART2
                0x9d029bfc       0x50 C:/Program Files/Microchip/MPLAB C32/bin/../lib/gcc/pic32mx/3.4.4/../../../../pic32mx/lib/size\libmchp_peripheral_32MX795F512L.a(puts_uartx_lib_legacy.o)
                0x9d029bfc                putsUART2
 .text          0x9d029c4c        0x0 C:/Program Files/Microchip/MPLAB C32/bin/../lib/gcc/pic32mx/3.4.4/../../../../pic32mx/lib/size\libmchp_peripheral_32MX795F512L.a(int_enable_interrupts_lib.o)
 .text.INTEnableInterrupts
                0x9d029c4c        0x8 C:/Program Files/Microchip/MPLAB C32/bin/../lib/gcc/pic32mx/3.4.4/../../../../pic32mx/lib/size\libmchp_peripheral_32MX795F512L.a(int_enable_interrupts_lib.o)
                0x9d029c4c                INTEnableInterrupts
 .text          0x9d029c54      0x4ac C:/Program Files/Microchip/MPLAB C32/bin/../lib/gcc/pic32mx/3.4.4/size\libgcc.a(_umoddi3.o)
                0x9d029c54                __umoddi3
 .text          0x9d02a100        0x0 C:/Program Files/Microchip/MPLAB C32/bin/../lib/gcc/pic32mx/3.4.4/../../../../pic32mx/lib/./proc/32MX795F512L\processor.o
 *(.text.*personality*)
 *(.gnu.warning)
 *(.mips16.fn.*)
 *(.mips16.call.*)
                0x9d02a100                _text_end = .

.FreeRTOS       0x9d02a100      0x440
 .FreeRTOS      0x9d02a100      0x440 Objects Files\port_asm.o
                0x9d02a100                vT2InterruptHandler
                0x9d02a2a8                vPortStartFirstTask
                0x9d02a36c                vPortYieldISR

.rodata         0x9d02a540     0x1dc4
 *(.rodata .rodata.* .gnu.linkonce.r.*)
 .rodata        0x9d02a540       0x1c Objects Files\tasks.o
 .rodata        0x9d02a55c        0x4 Objects Files\port.o
                0x9d02a55c                xISRStackTop
 .rodata        0x9d02a560       0x14 Objects Files\WF_Config.o
 .rodata        0x9d02a574       0x40 Objects Files\RTOS_init.o
 *fill*         0x9d02a5b4        0x4 00
 .rodata        0x9d02a5b8       0x70 Objects Files\App_functions.o
 .rodata        0x9d02a628       0x94 Objects Files\App_HTTP_custom.o
 .rodata        0x9d02a6bc       0x6c Objects Files\TCPIP_init.o
 .rodata        0x9d02a728       0xd8 Objects Files\Main.o
 .rodata        0x9d02a800        0x8 Objects Files\Task_control.o
 .rodata        0x9d02a808      0x11c Objects Files\WFConsole.o
 .rodata        0x9d02a924        0xc Objects Files\WFConsoleMsgHandler.o
 .rodata        0x9d02a930       0xb8 Objects Files\WFConsoleMsgs.o
                0x9d02a930                helpCmd
                0x9d02a938                helpHelp
                0x9d02a94c                getwfverCmd
                0x9d02a958                getwfverHelp
                0x9d02a974                resetCmd
                0x9d02a97c                resetHelp
                0x9d02a98c                clsCmd
                0x9d02a990                clsHelp
                0x9d02a9a0                seeDocHelp
                0x9d02a9b4                g_consoleCmd
                0x9d02a9e4                g_numCmds
 .rodata        0x9d02a9e8        0x4 Objects Files\WFDriverRaw.o
 .rodata        0x9d02a9ec       0x2c Objects Files\WFEasyConfig.o
 .rodata        0x9d02aa18       0x18 Objects Files\WFEventHandler.o
 .rodata        0x9d02aa30        0x8 Objects Files\WFInit.o
 .rodata        0x9d02aa38        0x4 Objects Files\WFParamMsg.o
 .rodata        0x9d02aa3c      0x8cc Objects Files\HTTP2.o
 .rodata        0x9d02b308        0x8 Objects Files\MPFS2.o
 .rodata        0x9d02b310       0x7c Objects Files\TCP.o
                0x9d02b310                TCPSocketInitializer
 *fill*         0x9d02b38c        0x4 00
 .rodata        0x9d02b390       0xc8 Objects Files\Task_DebugUART.o
 .rodata        0x9d02b458      0x358 Objects Files\IperfApp.o
 .rodata        0x9d02b7b0      0x104 C:/Program Files/Microchip/MPLAB C32/bin/../lib/gcc/pic32mx/3.4.4/../../../../pic32mx/lib/size\libc.a(ctype.o)
                0x9d02b7b0                _ctype
 .rodata        0x9d02b8b4      0x1a0 C:/Program Files/Microchip/MPLAB C32/bin/../lib/gcc/pic32mx/3.4.4/../../../../pic32mx/lib/size\libc.a(_doprnt.o)
 *fill*         0x9d02ba54        0x4 00
 .rodata.cst8   0x9d02ba58       0x28 C:/Program Files/Microchip/MPLAB C32/bin/../lib/gcc/pic32mx/3.4.4/../../../../pic32mx/lib/size\libc.a(_doprnt.o)
                                 0x30 (size before relaxing)
 .rodata.str1.4
                0x9d02ba80       0x1c C:/Program Files/Microchip/MPLAB C32/bin/../lib/gcc/pic32mx/3.4.4/../../../../pic32mx/lib/size\libc.a(_doprnt.o)
 .rodata        0x9d02ba9c       0x14 C:/Program Files/Microchip/MPLAB C32/bin/../lib/gcc/pic32mx/3.4.4/../../../../pic32mx/lib/size\libc.a(_iobdata.o)
                0x9d02ba9c                _io_funcs
 .rodata        0x9d02bab0       0x14 C:/Program Files/Microchip/MPLAB C32/bin/../lib/gcc/pic32mx/3.4.4/../../../../pic32mx/lib/size\libc.a(_iobstring.o)
                0x9d02bab0                _io_strfuncs
 .rodata        0x9d02bac4      0x7d4 C:/Program Files/Microchip/MPLAB C32/bin/../lib/gcc/pic32mx/3.4.4/../../../../pic32mx/lib/size\libmchp_peripheral_32MX795F512L.a(int_tbl_lib.o)
                0x9d02bac4                __IntVectorTbl
                0x9d02bd7c                __IntSrcTbl
 .rodata        0x9d02c298       0x54 C:/Program Files/Microchip/MPLAB C32/bin/../lib/gcc/pic32mx/3.4.4/../../../../pic32mx/lib/size\libmchp_peripheral_32MX795F512L.a(_ports_tbl_libp.o)
                0x9d02c298                PortRegTbl
 .rodata        0x9d02c2ec       0x18 C:/Program Files/Microchip/MPLAB C32/bin/../lib/gcc/pic32mx/3.4.4/../../../../pic32mx/lib/size\libmchp_peripheral_32MX795F512L.a(uart_lib.o)
                0x9d02c2ec                uartReg
 *(.rodata1)
                0x9d02c304                . = ALIGN (0x4)

.sdata2         0x9d02c304        0x0
 *(.sdata2 .sdata2.* .gnu.linkonce.s2.*)
                0x9d02c304                . = ALIGN (0x4)

.sbss2          0x9d02c304        0x0
 *(.sbss2 .sbss2.* .gnu.linkonce.sb2.*)
                0x9d02c304                . = ALIGN (0x4)

.eh_frame_hdr
 *(.eh_frame_hdr)

.eh_frame       0x9d02c304       0x40
 *(.eh_frame)
 .eh_frame      0x9d02c304       0x20 C:/Program Files/Microchip/MPLAB C32/bin/../lib/gcc/pic32mx/3.4.4/size\libgcc.a(_udivdi3.o)
 .eh_frame      0x9d02c324       0x20 C:/Program Files/Microchip/MPLAB C32/bin/../lib/gcc/pic32mx/3.4.4/size\libgcc.a(_umoddi3.o)

.dbg_data       0xa0000000        0x0
                0xa0000000                . = (. + DEFINED (_DEBUGGER)?0x200:0x0)

.persist        0xa0000000        0x0
                0xa0000000                _persist_begin = .
 *(.persist .persist.*)
                0xa0000000                _persist_end = .

.data           0xa0000000       0xf4 load address 0x9d02c344
                0xa0000000                _data_begin = .
 *(.data .data.* .gnu.linkonce.d.*)
 .data          0xa0000000        0x0 C:/Program Files/Microchip/MPLAB C32/bin/../lib/gcc/pic32mx/3.4.4/../../../../pic32mx/lib/size/crt0.o
 .data          0xa0000000        0x0 Objects Files\tasks.o
 .data          0xa0000000        0x0 Objects Files\list.o
 .data          0xa0000000        0x0 Objects Files\queue.o
 .data          0xa0000000        0x0 Objects Files\port_asm.o
 .data          0xa0000000        0x0 Objects Files\port.o
 .data          0xa0000000        0x0 Objects Files\heap_1.o
 .data          0xa0000000        0x0 Objects Files\WF_Config.o
 .data          0xa0000000        0x0 Objects Files\RTOS_init.o
 .data          0xa0000000        0x0 Objects Files\App_functions.o
 .data          0xa0000000        0x0 Objects Files\App_HTTP_custom.o
 .data          0xa0000000        0x0 Objects Files\TCPIP_init.o
 .data          0xa0000000        0x0 Objects Files\App_init.o
 .data          0xa0000000        0x0 Objects Files\Main.o
 .data          0xa0000000        0x0 Objects Files\Task_HTTP.o
 .data          0xa0000000        0x0 Objects Files\Task_control.o
 .data          0xa0000000        0x0 Objects Files\Task_Network.o
 .data          0xa0000000        0x0 Objects Files\WF_Eint.o
 .data          0xa0000000        0x0 Objects Files\WF_Spi.o
 .data          0xa0000000        0x0 Objects Files\WFConnectionAlgorithm.o
 .data          0xa0000000        0x0 Objects Files\WFConnectionManager.o
 .data          0xa0000000        0x0 Objects Files\WFConnectionProfile.o
 .data          0xa0000000        0x0 Objects Files\WFConsole.o
 .data          0xa0000000        0x0 Objects Files\WFConsoleIfconfig.o
 .data          0xa0000000        0x0 Objects Files\WFConsoleIwconfig.o
 .data          0xa0000000        0x0 Objects Files\WFConsoleIwpriv.o
 .data          0xa0000000        0x0 Objects Files\WFConsoleMsgHandler.o
 .data          0xa0000000        0x0 Objects Files\WFConsoleMsgs.o
 .data          0xa0000000        0x0 Objects Files\WFDataTxRx.o
 .data          0xa0000000        0x0 Objects Files\WFDriverCom.o
 .data          0xa0000000        0x0 Objects Files\WFDriverRaw.o
 .data          0xa0000000        0x0 Objects Files\WFEasyConfig.o
 .data          0xa0000000        0x0 Objects Files\WFEventHandler.o
 .data          0xa0000000        0x0 Objects Files\WFInit.o
 .data          0xa0000000        0x0 Objects Files\WFMac.o
 .data          0xa0000000        0x0 Objects Files\WFMgmtMsg.o
 .data          0xa0000000        0x0 Objects Files\WFParamMsg.o
 .data          0xa0000000        0x0 Objects Files\WFPowerSave.o
 .data          0xa0000000        0x0 Objects Files\WFScan.o
 .data          0xa0000000        0x0 Objects Files\WFTxPower.o
 .data          0xa0000000        0x0 Objects Files\ARCFOUR.o
 .data          0xa0000000        0x0 Objects Files\ARP.o
 .data          0xa0000000        0x0 Objects Files\BigInt.o
 .data          0xa0000000        0x0 Objects Files\BigInt_helper_C32.o
 .data          0xa0000000        0x0 Objects Files\Delay.o
 .data          0xa0000000        0x0 Objects Files\DHCPs.o
 .data          0xa0000000        0x0 Objects Files\Hashes.o
 .data          0xa0000000        0x0 Objects Files\Helpers.o
 .data          0xa0000000        0x0 Objects Files\HTTP2.o
 .data          0xa0000000        0x0 Objects Files\ICMP.o
 .data          0xa0000000        0x0 Objects Files\IP.o
 .data          0xa0000000        0x0 Objects Files\LCDBlocking.o
 .data          0xa0000000        0x0 Objects Files\MPFS2.o
 .data          0xa0000000        0x0 Objects Files\NBNS.o
 .data          0xa0000000        0x0 Objects Files\Random.o
 .data          0xa0000000        0x0 Objects Files\Reboot.o
 .data          0xa0000000        0x0 Objects Files\RSA.o
 .data          0xa0000000        0x0 Objects Files\SPIEEPROM.o
 .data          0xa0000000        0x0 Objects Files\StackTsk.o
 .data          0xa0000000        0x0 Objects Files\TCP.o
 .data          0xa0000000        0x0 Objects Files\Tick.o
 .data          0xa0000000        0x0 Objects Files\UDP.o
 .data          0xa0000000        0x0 Objects Files\isr_wrapper.o
 .data          0xa0000000        0x0 Objects Files\Task_DebugUART.o
 .data          0xa0000000        0x0 Objects Files\IperfApp.o
 .data          0xa0000000        0x0 C:/Program Files/Microchip/MPLAB C32/bin/../lib/gcc/pic32mx/3.4.4/size\libgcc.a(_udivdi3.o)
 .data          0xa0000000        0x0 C:/Program Files/Microchip/MPLAB C32/bin/../lib/gcc/pic32mx/3.4.4/../../../../pic32mx/lib/size\libc.a(memcmp.o)
 .data          0xa0000000        0x0 C:/Program Files/Microchip/MPLAB C32/bin/../lib/gcc/pic32mx/3.4.4/../../../../pic32mx/lib/size\libc.a(memcpy.o)
 .data          0xa0000000        0x0 C:/Program Files/Microchip/MPLAB C32/bin/../lib/gcc/pic32mx/3.4.4/../../../../pic32mx/lib/size\libc.a(memset.o)
 .data          0xa0000000        0x0 C:/Program Files/Microchip/MPLAB C32/bin/../lib/gcc/pic32mx/3.4.4/../../../../pic32mx/lib/size\libc.a(strcmp.o)
 .data          0xa0000000        0x0 C:/Program Files/Microchip/MPLAB C32/bin/../lib/gcc/pic32mx/3.4.4/../../../../pic32mx/lib/size\libc.a(strcpy.o)
 .data          0xa0000000        0x0 C:/Program Files/Microchip/MPLAB C32/bin/../lib/gcc/pic32mx/3.4.4/../../../../pic32mx/lib/size\libc.a(strlen.o)
 .data          0xa0000000        0x0 C:/Program Files/Microchip/MPLAB C32/bin/../lib/gcc/pic32mx/3.4.4/../../../../pic32mx/lib/size\libc.a(general-exception.o)
 .data          0xa0000000        0x0 C:/Program Files/Microchip/MPLAB C32/bin/../lib/gcc/pic32mx/3.4.4/../../../../pic32mx/lib/size\libc.a(strncpy.o)
 .data          0xa0000000        0x0 C:/Program Files/Microchip/MPLAB C32/bin/../lib/gcc/pic32mx/3.4.4/../../../../pic32mx/lib/size\libc.a(exit.o)
 .data          0xa0000000        0x0 C:/Program Files/Microchip/MPLAB C32/bin/../lib/gcc/pic32mx/3.4.4/../../../../pic32mx/lib/size\libc.a(ctype.o)
 .data          0xa0000000        0x0 C:/Program Files/Microchip/MPLAB C32/bin/../lib/gcc/pic32mx/3.4.4/../../../../pic32mx/lib/size\libc.a(ctypef.o)
 .data          0xa0000000        0x0 C:/Program Files/Microchip/MPLAB C32/bin/../lib/gcc/pic32mx/3.4.4/../../../../pic32mx/lib/size\libc.a(atol.o)
 .data          0xa0000000        0x0 C:/Program Files/Microchip/MPLAB C32/bin/../lib/gcc/pic32mx/3.4.4/../../../../pic32mx/lib/size\libc.a(strtol.o)
 .data          0xa0000000        0x0 C:/Program Files/Microchip/MPLAB C32/bin/../lib/gcc/pic32mx/3.4.4/../../../../pic32mx/lib/size\libc.a(sprintf.o)
 .data          0xa0000000        0x0 C:/Program Files/Microchip/MPLAB C32/bin/../lib/gcc/pic32mx/3.4.4/../../../../pic32mx/lib/size\libc.a(__vsnprintf.o)
 .data          0xa0000000        0x0 C:/Program Files/Microchip/MPLAB C32/bin/../lib/gcc/pic32mx/3.4.4/../../../../pic32mx/lib/size\libc.a(default-bootstrap-exception-handler.o)
 .data          0xa0000000        0x0 C:/Program Files/Microchip/MPLAB C32/bin/../lib/gcc/pic32mx/3.4.4/../../../../pic32mx/lib/size\libc.a(default-on-reset.o)
 .data          0xa0000000        0x0 C:/Program Files/Microchip/MPLAB C32/bin/../lib/gcc/pic32mx/3.4.4/../../../../pic32mx/lib/size\libc.a(default-on-bootstrap.o)
 .data          0xa0000000        0x0 C:/Program Files/Microchip/MPLAB C32/bin/../lib/gcc/pic32mx/3.4.4/../../../../pic32mx/lib/size\libc.a(default-nmi-handler.o)
 .data          0xa0000000        0x0 C:/Program Files/Microchip/MPLAB C32/bin/../lib/gcc/pic32mx/3.4.4/../../../../pic32mx/lib/size\libc.a(_exit.o)
 .data          0xa0000000        0x0 C:/Program Files/Microchip/MPLAB C32/bin/../lib/gcc/pic32mx/3.4.4/../../../../pic32mx/lib/size\libc.a(errno.o)
 .data          0xa0000000        0x0 C:/Program Files/Microchip/MPLAB C32/bin/../lib/gcc/pic32mx/3.4.4/../../../../pic32mx/lib/size\libc.a(_doprnt.o)
 .data          0xa0000000       0xd4 C:/Program Files/Microchip/MPLAB C32/bin/../lib/gcc/pic32mx/3.4.4/../../../../pic32mx/lib/size\libc.a(_iobdata.o)
 .data          0xa00000d4        0x0 C:/Program Files/Microchip/MPLAB C32/bin/../lib/gcc/pic32mx/3.4.4/../../../../pic32mx/lib/size\libc.a(_iobfuncs.o)
 .data          0xa00000d4        0x0 C:/Program Files/Microchip/MPLAB C32/bin/../lib/gcc/pic32mx/3.4.4/../../../../pic32mx/lib/size\libc.a(_iobstring.o)
 .data          0xa00000d4        0x0 C:/Program Files/Microchip/MPLAB C32/bin/../lib/gcc/pic32mx/3.4.4/../../../../pic32mx/lib/size\libc.a(fputc.o)
 .data          0xa00000d4        0x0 C:/Program Files/Microchip/MPLAB C32/bin/../lib/gcc/pic32mx/3.4.4/../../../../pic32mx/lib/size\libc.a(stubs.o)
 .data          0xa00000d4        0x0 C:/Program Files/Microchip/MPLAB C32/bin/../lib/gcc/pic32mx/3.4.4/../../../../pic32mx/lib/size\libc.a(_mon_getc.o)
 .data          0xa00000d4        0x0 C:/Program Files/Microchip/MPLAB C32/bin/../lib/gcc/pic32mx/3.4.4/../../../../pic32mx/lib/size\libc.a(_mon_write.o)
 .data          0xa00000d4       0x20 C:/Program Files/Microchip/MPLAB C32/bin/../lib/gcc/pic32mx/3.4.4/../../../../pic32mx/lib/size\libc.a(fullexit.o)
                0xa00000d4                __exfun_mx
 .data          0xa00000f4        0x0 C:/Program Files/Microchip/MPLAB C32/bin/../lib/gcc/pic32mx/3.4.4/../../../../pic32mx/lib/size\libc.a(_mon_putc.o)
 .data          0xa00000f4        0x0 C:/Program Files/Microchip/MPLAB C32/bin/../lib/gcc/pic32mx/3.4.4/../../../../pic32mx/lib/size\libm.a(mod32.o)
 .data          0xa00000f4        0x0 C:/Program Files/Microchip/MPLAB C32/bin/../lib/gcc/pic32mx/3.4.4/../../../../pic32mx/lib/size\libm.a(dp32.o)
 .data          0xa00000f4        0x0 C:/Program Files/Microchip/MPLAB C32/bin/../lib/gcc/pic32mx/3.4.4/../../../../pic32mx/lib/size\libm.a(fp32.o)
 .data          0xa00000f4        0x0 C:/Program Files/Microchip/MPLAB C32/bin/../lib/gcc/pic32mx/3.4.4/../../../../pic32mx/lib/size\libmchp_peripheral_32MX795F512L.a(soft_reset_lib.o)
 .data          0xa00000f4        0x0 C:/Program Files/Microchip/MPLAB C32/bin/../lib/gcc/pic32mx/3.4.4/../../../../pic32mx/lib/size\libmchp_peripheral_32MX795F512L.a(pcache.o)
 .data          0xa00000f4        0x0 C:/Program Files/Microchip/MPLAB C32/bin/../lib/gcc/pic32mx/3.4.4/../../../../pic32mx/lib/size\libmchp_peripheral_32MX795F512L.a(set_core_sw0_leg_lib.o)
 .data          0xa00000f4        0x0 C:/Program Files/Microchip/MPLAB C32/bin/../lib/gcc/pic32mx/3.4.4/../../../../pic32mx/lib/size\libmchp_peripheral_32MX795F512L.a(int_disable_interrupts_lib.o)
 .data          0xa00000f4        0x0 C:/Program Files/Microchip/MPLAB C32/bin/../lib/gcc/pic32mx/3.4.4/../../../../pic32mx/lib/size\libmchp_peripheral_32MX795F512L.a(int_restore_interrupts_lib.o)
 .data          0xa00000f4        0x0 C:/Program Files/Microchip/MPLAB C32/bin/../lib/gcc/pic32mx/3.4.4/../../../../pic32mx/lib/size\libmchp_peripheral_32MX795F512L.a(int_enable_mv_int_lib.o)
 .data          0xa00000f4        0x0 C:/Program Files/Microchip/MPLAB C32/bin/../lib/gcc/pic32mx/3.4.4/../../../../pic32mx/lib/size\libmchp_peripheral_32MX795F512L.a(int_tbl_lib.o)
 .data          0xa00000f4        0x0 C:/Program Files/Microchip/MPLAB C32/bin/../lib/gcc/pic32mx/3.4.4/../../../../pic32mx/lib/size\libmchp_peripheral_32MX795F512L.a(port_set_pins_digital_out_lib.o)
 .data          0xa00000f4        0x0 C:/Program Files/Microchip/MPLAB C32/bin/../lib/gcc/pic32mx/3.4.4/../../../../pic32mx/lib/size\libmchp_peripheral_32MX795F512L.a(port_clear_bits_lib.o)
 .data          0xa00000f4        0x0 C:/Program Files/Microchip/MPLAB C32/bin/../lib/gcc/pic32mx/3.4.4/../../../../pic32mx/lib/size\libmchp_peripheral_32MX795F512L.a(port_set_bits_lib.o)
 .data          0xa00000f4        0x0 C:/Program Files/Microchip/MPLAB C32/bin/../lib/gcc/pic32mx/3.4.4/../../../../pic32mx/lib/size\libmchp_peripheral_32MX795F512L.a(_ports_tbl_libp.o)
 .data          0xa00000f4        0x0 C:/Program Files/Microchip/MPLAB C32/bin/../lib/gcc/pic32mx/3.4.4/../../../../pic32mx/lib/size\libmchp_peripheral_32MX795F512L.a(uart_lib.o)
 .data          0xa00000f4        0x0 C:/Program Files/Microchip/MPLAB C32/bin/../lib/gcc/pic32mx/3.4.4/../../../../pic32mx/lib/size\libmchp_peripheral_32MX795F512L.a(puts_uartx_lib_legacy.o)
 .data          0xa00000f4        0x0 C:/Program Files/Microchip/MPLAB C32/bin/../lib/gcc/pic32mx/3.4.4/../../../../pic32mx/lib/size\libmchp_peripheral_32MX795F512L.a(int_enable_interrupts_lib.o)
 .data          0xa00000f4        0x0 C:/Program Files/Microchip/MPLAB C32/bin/../lib/gcc/pic32mx/3.4.4/size\libgcc.a(_umoddi3.o)
 .data          0xa00000f4        0x0 C:/Program Files/Microchip/MPLAB C32/bin/../lib/gcc/pic32mx/3.4.4/../../../../pic32mx/lib/./proc/32MX795F512L\processor.o
 *(.gnu.linkonce.d.*personality*)
 *(.data1)
                0x9d02c344                _data_image_begin = LOADADDR (.data)

.eh_frame
 *(.eh_frame)
                0xa00000f4                . = .
                0xa00080f0                _gp = (ALIGN (0x10) + 0x7ff0)

.got
 *(.got.plt)
 *(.got)

.sdata          0xa00000f4       0x18 load address 0x9d02c438
                0xa00000f4                _sdata_begin = .
 *(.sdata .sdata.* .gnu.linkonce.s.*)
 .sdata         0xa00000f4        0x4 Objects Files\port.o
                0xa00000f4                uxInterruptNesting
 .sdata         0xa00000f8        0x1 Objects Files\WFConnectionAlgorithm.o
 .sdata         0xa00000f9        0x1 Objects Files\WFConsole.o
 .sdata         0xa00000fa        0x1 Objects Files\WFPowerSave.o
 *fill*         0xa00000fb        0x1 00
 .sdata         0xa00000fc        0x4 Objects Files\DHCPs.o
                0xa00000fc                bDHCPServerEnabled
 .sdata         0xa0000100        0x4 Objects Files\Helpers.o
 .sdata         0xa0000104        0x2 Objects Files\TCP.o
 .sdata         0xa0000106        0x2 Objects Files\UDP.o
 .sdata         0xa0000108        0x4 C:/Program Files/Microchip/MPLAB C32/bin/../lib/gcc/pic32mx/3.4.4/../../../../pic32mx/lib/size\libc.a(_iobdata.o)
                0xa0000108                _libc_data
                0xa000010c                _sdata_end = .

.lit8
 *(.lit8)

.lit4
 *(.lit4)
                0xa000010c                . = ALIGN (0x4)
                0xa000010c                _data_end = .
                0xa000010c                _bss_begin = .

.sbss           0xa000010c      0x17e load address 0x9d02c450
                0xa000010c                _sbss_begin = .
 *(.dynsbss)
 *(.sbss .sbss.* .gnu.linkonce.sb.*)
 .sbss          0xa000010c       0x34 Objects Files\tasks.o
                0xa000010c                pxCurrentTCB
 .sbss          0xa0000140        0x4 Objects Files\port.o
                0xa0000140                uxSavedTaskStackPointer
 .sbss          0xa0000144        0x4 Objects Files\heap_1.o
 .sbss          0xa0000148        0x2 Objects Files\RTOS_init.o
 *fill*         0xa000014a        0x2 00
 .sbss          0xa000014c        0xc Objects Files\App_functions.o
 .sbss          0xa0000158        0xc Objects Files\App_HTTP_custom.o
                0xa0000160                etat_save_info
 .sbss          0xa0000164        0x2 Objects Files\TCPIP_init.o
 .sbss          0xa0000166        0x2 Objects Files\App_init.o
 .sbss          0xa0000168        0x2 Objects Files\Main.o
 .sbss          0xa000016a        0x2 Objects Files\Task_HTTP.o
 .sbss          0xa000016c        0x2 Objects Files\Task_control.o
 .sbss          0xa000016e        0x2 Objects Files\Task_Network.o
 .sbss          0xa0000170        0x1 Objects Files\WF_Spi.o
 *fill*         0xa0000171        0x3 00
 .sbss          0xa0000174        0x4 Objects Files\WFConnectionManager.o
 .sbss          0xa0000178        0x8 Objects Files\WFConsole.o
 .sbss          0xa0000180       0x18 Objects Files\WFDriverCom.o
 .sbss          0xa0000198        0x4 Objects Files\WFDriverRaw.o
                0xa0000198                g_HostRAWDataPacketReceived
 .sbss          0xa000019c       0x1c Objects Files\WFMac.o
 .sbss          0xa00001b8        0xc Objects Files\WFMgmtMsg.o
                0xa00001c0                g_MgmtResponseInProgress
 .sbss          0xa00001c4        0x4 Objects Files\WFPowerSave.o
 .sbss          0xa00001c8        0x4 Objects Files\ARP.o
 .sbss          0xa00001cc        0xc Objects Files\DHCPs.o
 .sbss          0xa00001d8        0x4 Objects Files\IP.o
 .sbss          0xa00001dc        0x8 Objects Files\MPFS2.o
 .sbss          0xa00001e4        0x8 Objects Files\SPIEEPROM.o
 .sbss          0xa00001ec        0x4 Objects Files\StackTsk.o
 .sbss          0xa00001f0        0x2 Objects Files\TCP.o
 *fill*         0xa00001f2        0x2 00
 .sbss          0xa00001f4        0xc Objects Files\Tick.o
 .sbss          0xa0000200        0xc Objects Files\UDP.o
 .sbss          0xa000020c        0x2 Objects Files\Task_DebugUART.o
 *fill*         0xa000020e        0x2 00
 .sbss          0xa0000210        0x4 C:/Program Files/Microchip/MPLAB C32/bin/../lib/gcc/pic32mx/3.4.4/../../../../pic32mx/lib/size\libc.a(errno.o)
                0xa0000210                errno
 *(.scommon)
 .scommon       0xa0000214       0x48 Objects Files\RTOS_init.o
                0xa0000214                Change_Direction_up
                0xa0000215                Change_Direction_down
                0xa0000218                xQueueDebugPrintIP
                0xa000021c                BAS_BUTE
                0xa0000220                xQueueDebugPrint
                0xa0000224                init_ok
                0xa0000228                xSemaphoreVitesse
                0xa000022c                Change_Vitesse_down
                0xa000022d                increment_direction
                0xa0000230                AN0String
                0xa0000238                resultat_courant
                0xa000023a                increment_vitesse
                0xa000023c                resultat
                0xa0000240                xQueueAcquiData
                0xa0000244                xSemaphoreConsDir
                0xa0000248                MemoryIndexVar
                0xa0000250                Vitesse
                0xa0000252                Change_Vitesse_up
                0xa0000254                ConsDir
                0xa0000256                HAUT_BUTE
                0xa0000258                Marche_Avant_Arriere
                0xa000025a                ZERO_BUTE
 .scommon       0xa000025c        0x0 Objects Files\App_functions.o
 .scommon       0xa000025c        0x0 Objects Files\App_HTTP_custom.o
 .scommon       0xa000025c        0x0 Objects Files\TCPIP_init.o
 .scommon       0xa000025c        0x0 Objects Files\App_init.o
 .scommon       0xa000025c        0x0 Objects Files\Main.o
 .scommon       0xa000025c        0x0 Objects Files\Task_HTTP.o
 .scommon       0xa000025c        0x0 Objects Files\Task_control.o
 .scommon       0xa000025c        0x0 Objects Files\Task_Network.o
 .scommon       0xa000025c        0x8 Objects Files\WFDriverCom.o
                0xa000025c                RawMoveState
 .scommon       0xa0000264        0xc Objects Files\WFDriverRaw.o
                0xa0000264                RawWindowState
                0xa0000268                RawWindowReady
 .scommon       0xa0000270        0x6 Objects Files\WFEasyConfig.o
                0xa0000270                g_ScanCtx
 *fill*         0xa0000276        0x2 00
 .scommon       0xa0000278        0x4 Objects Files\WFMac.o
                0xa0000278                g_rxIndexSetBeyondBuffer
 .scommon       0xa000027c        0x1 Objects Files\HTTP2.o
                0xa000027c                curHTTPID
 *fill*         0xa000027d        0x3 00
 .scommon       0xa0000280        0x4 Objects Files\MPFS2.o
                0xa0000280                lastRead
 .scommon       0xa0000284        0x6 Objects Files\UDP.o
                0xa0000284                activeUDPSocket
                0xa0000286                UDPTxCount
                0xa0000288                UDPRxCount
 .scommon       0xa000028a        0x0 Objects Files\Task_DebugUART.o
                0xa000028a                _sbss_end = .

.bss            0xa0000290     0x6dec load address 0x9d02c450
 *(.dynbss)
 *(.bss .bss.* .gnu.linkonce.b.*)
 .bss           0xa0000290        0x0 C:/Program Files/Microchip/MPLAB C32/bin/../lib/gcc/pic32mx/3.4.4/../../../../pic32mx/lib/size/crt0.o
 .bss           0xa0000290       0xb4 Objects Files\tasks.o
 .bss           0xa0000344        0x0 Objects Files\list.o
 .bss           0xa0000344        0x0 Objects Files\queue.o
 .bss           0xa0000344        0x0 Objects Files\port_asm.o
 .bss           0xa0000344      0x7d0 Objects Files\port.o
                0xa0000344                xISRStack
 *fill*         0xa0000b14        0x4 00
 .bss           0xa0000b18     0x5dc0 Objects Files\heap_1.o
 .bss           0xa00068d8        0x0 Objects Files\WF_Config.o
 .bss           0xa00068d8        0x0 Objects Files\RTOS_init.o
 .bss           0xa00068d8        0x0 Objects Files\App_functions.o
 .bss           0xa00068d8        0x0 Objects Files\App_HTTP_custom.o
 .bss           0xa00068d8        0x0 Objects Files\TCPIP_init.o
 .bss           0xa00068d8        0x0 Objects Files\App_init.o
 .bss           0xa00068d8        0x0 Objects Files\Main.o
 .bss           0xa00068d8        0x0 Objects Files\Task_HTTP.o
 .bss           0xa00068d8        0x0 Objects Files\Task_control.o
 .bss           0xa00068d8        0x0 Objects Files\Task_Network.o
 .bss           0xa00068d8        0x0 Objects Files\WF_Eint.o
 .bss           0xa00068d8        0x0 Objects Files\WF_Spi.o
 .bss           0xa00068d8        0x0 Objects Files\WFConnectionAlgorithm.o
 .bss           0xa00068d8        0x0 Objects Files\WFConnectionManager.o
 .bss           0xa00068d8        0x0 Objects Files\WFConnectionProfile.o
 .bss           0xa00068d8       0xac Objects Files\WFConsole.o
 .bss           0xa0006984        0x0 Objects Files\WFConsoleIfconfig.o
 .bss           0xa0006984        0x0 Objects Files\WFConsoleIwconfig.o
 .bss           0xa0006984        0x0 Objects Files\WFConsoleIwpriv.o
 .bss           0xa0006984        0x0 Objects Files\WFConsoleMsgHandler.o
 .bss           0xa0006984        0x0 Objects Files\WFConsoleMsgs.o
 .bss           0xa0006984        0x0 Objects Files\WFDataTxRx.o
 .bss           0xa0006984        0x0 Objects Files\WFDriverCom.o
 .bss           0xa0006984        0x0 Objects Files\WFDriverRaw.o
 .bss           0xa0006984        0x0 Objects Files\WFEasyConfig.o
 .bss           0xa0006984        0x0 Objects Files\WFEventHandler.o
 .bss           0xa0006984        0x0 Objects Files\WFInit.o
 .bss           0xa0006984        0x0 Objects Files\WFMac.o
 .bss           0xa0006984        0x0 Objects Files\WFMgmtMsg.o
 .bss           0xa0006984        0x0 Objects Files\WFParamMsg.o
 .bss           0xa0006984        0x0 Objects Files\WFPowerSave.o
 .bss           0xa0006984        0x0 Objects Files\WFScan.o
 .bss           0xa0006984        0x0 Objects Files\WFTxPower.o
 .bss           0xa0006984        0x0 Objects Files\ARCFOUR.o
 .bss           0xa0006984       0x18 Objects Files\ARP.o
 .bss           0xa000699c        0x0 Objects Files\BigInt.o
 .bss           0xa000699c        0x0 Objects Files\BigInt_helper_C32.o
 .bss           0xa000699c        0x0 Objects Files\Delay.o
 .bss           0xa000699c        0x0 Objects Files\DHCPs.o
 .bss           0xa000699c        0x0 Objects Files\Hashes.o
 .bss           0xa000699c        0x0 Objects Files\Helpers.o
 .bss           0xa000699c        0x0 Objects Files\HTTP2.o
 .bss           0xa000699c        0x0 Objects Files\ICMP.o
 .bss           0xa000699c        0x0 Objects Files\IP.o
 .bss           0xa000699c        0x0 Objects Files\LCDBlocking.o
 .bss           0xa000699c       0x78 Objects Files\MPFS2.o
 .bss           0xa0006a14        0x0 Objects Files\NBNS.o
 .bss           0xa0006a14        0x0 Objects Files\Random.o
 .bss           0xa0006a14        0x0 Objects Files\Reboot.o
 .bss           0xa0006a14        0x0 Objects Files\RSA.o
 .bss           0xa0006a14       0x20 Objects Files\SPIEEPROM.o
 .bss           0xa0006a34        0x0 Objects Files\StackTsk.o
 .bss           0xa0006a34       0xd4 Objects Files\TCP.o
 .bss           0xa0006b08        0x0 Objects Files\Tick.o
 .bss           0xa0006b08        0x0 Objects Files\UDP.o
 .bss           0xa0006b08        0x0 Objects Files\isr_wrapper.o
 .bss           0xa0006b08        0x0 Objects Files\Task_DebugUART.o
 .bss           0xa0006b08       0x98 Objects Files\IperfApp.o
 .bss           0xa0006ba0        0x0 C:/Program Files/Microchip/MPLAB C32/bin/../lib/gcc/pic32mx/3.4.4/size\libgcc.a(_udivdi3.o)
 .bss           0xa0006ba0        0x0 C:/Program Files/Microchip/MPLAB C32/bin/../lib/gcc/pic32mx/3.4.4/../../../../pic32mx/lib/size\libc.a(memcmp.o)
 .bss           0xa0006ba0        0x0 C:/Program Files/Microchip/MPLAB C32/bin/../lib/gcc/pic32mx/3.4.4/../../../../pic32mx/lib/size\libc.a(memcpy.o)
 .bss           0xa0006ba0        0x0 C:/Program Files/Microchip/MPLAB C32/bin/../lib/gcc/pic32mx/3.4.4/../../../../pic32mx/lib/size\libc.a(memset.o)
 .bss           0xa0006ba0        0x0 C:/Program Files/Microchip/MPLAB C32/bin/../lib/gcc/pic32mx/3.4.4/../../../../pic32mx/lib/size\libc.a(strcmp.o)
 .bss           0xa0006ba0        0x0 C:/Program Files/Microchip/MPLAB C32/bin/../lib/gcc/pic32mx/3.4.4/../../../../pic32mx/lib/size\libc.a(strcpy.o)
 .bss           0xa0006ba0        0x0 C:/Program Files/Microchip/MPLAB C32/bin/../lib/gcc/pic32mx/3.4.4/../../../../pic32mx/lib/size\libc.a(strlen.o)
 .bss           0xa0006ba0        0x0 C:/Program Files/Microchip/MPLAB C32/bin/../lib/gcc/pic32mx/3.4.4/../../../../pic32mx/lib/size\libc.a(general-exception.o)
 .bss           0xa0006ba0        0x0 C:/Program Files/Microchip/MPLAB C32/bin/../lib/gcc/pic32mx/3.4.4/../../../../pic32mx/lib/size\libc.a(strncpy.o)
 .bss           0xa0006ba0        0x0 C:/Program Files/Microchip/MPLAB C32/bin/../lib/gcc/pic32mx/3.4.4/../../../../pic32mx/lib/size\libc.a(exit.o)
 .bss           0xa0006ba0        0x0 C:/Program Files/Microchip/MPLAB C32/bin/../lib/gcc/pic32mx/3.4.4/../../../../pic32mx/lib/size\libc.a(ctype.o)
 .bss           0xa0006ba0        0x0 C:/Program Files/Microchip/MPLAB C32/bin/../lib/gcc/pic32mx/3.4.4/../../../../pic32mx/lib/size\libc.a(ctypef.o)
 .bss           0xa0006ba0        0x0 C:/Program Files/Microchip/MPLAB C32/bin/../lib/gcc/pic32mx/3.4.4/../../../../pic32mx/lib/size\libc.a(atol.o)
 .bss           0xa0006ba0        0x0 C:/Program Files/Microchip/MPLAB C32/bin/../lib/gcc/pic32mx/3.4.4/../../../../pic32mx/lib/size\libc.a(strtol.o)
 .bss           0xa0006ba0        0x0 C:/Program Files/Microchip/MPLAB C32/bin/../lib/gcc/pic32mx/3.4.4/../../../../pic32mx/lib/size\libc.a(sprintf.o)
 .bss           0xa0006ba0        0x0 C:/Program Files/Microchip/MPLAB C32/bin/../lib/gcc/pic32mx/3.4.4/../../../../pic32mx/lib/size\libc.a(__vsnprintf.o)
 .bss           0xa0006ba0        0x0 C:/Program Files/Microchip/MPLAB C32/bin/../lib/gcc/pic32mx/3.4.4/../../../../pic32mx/lib/size\libc.a(default-bootstrap-exception-handler.o)
 .bss           0xa0006ba0        0x0 C:/Program Files/Microchip/MPLAB C32/bin/../lib/gcc/pic32mx/3.4.4/../../../../pic32mx/lib/size\libc.a(default-on-reset.o)
 .bss           0xa0006ba0        0x0 C:/Program Files/Microchip/MPLAB C32/bin/../lib/gcc/pic32mx/3.4.4/../../../../pic32mx/lib/size\libc.a(default-on-bootstrap.o)
 .bss           0xa0006ba0        0x0 C:/Program Files/Microchip/MPLAB C32/bin/../lib/gcc/pic32mx/3.4.4/../../../../pic32mx/lib/size\libc.a(default-nmi-handler.o)
 .bss           0xa0006ba0        0x0 C:/Program Files/Microchip/MPLAB C32/bin/../lib/gcc/pic32mx/3.4.4/../../../../pic32mx/lib/size\libc.a(_exit.o)
 .bss           0xa0006ba0        0x0 C:/Program Files/Microchip/MPLAB C32/bin/../lib/gcc/pic32mx/3.4.4/../../../../pic32mx/lib/size\libc.a(errno.o)
 .bss           0xa0006ba0        0x0 C:/Program Files/Microchip/MPLAB C32/bin/../lib/gcc/pic32mx/3.4.4/../../../../pic32mx/lib/size\libc.a(_doprnt.o)
 .bss           0xa0006ba0       0x88 C:/Program Files/Microchip/MPLAB C32/bin/../lib/gcc/pic32mx/3.4.4/../../../../pic32mx/lib/size\libc.a(_iobdata.o)
 .bss           0xa0006c28       0x20 C:/Program Files/Microchip/MPLAB C32/bin/../lib/gcc/pic32mx/3.4.4/../../../../pic32mx/lib/size\libc.a(_iobfuncs.o)
 .bss           0xa0006c48        0x0 C:/Program Files/Microchip/MPLAB C32/bin/../lib/gcc/pic32mx/3.4.4/../../../../pic32mx/lib/size\libc.a(_iobstring.o)
 .bss           0xa0006c48        0x0 C:/Program Files/Microchip/MPLAB C32/bin/../lib/gcc/pic32mx/3.4.4/../../../../pic32mx/lib/size\libc.a(fputc.o)
 .bss           0xa0006c48        0x4 C:/Program Files/Microchip/MPLAB C32/bin/../lib/gcc/pic32mx/3.4.4/../../../../pic32mx/lib/size\libc.a(stubs.o)
                0xa0006c48                __isthreaded
 .bss           0xa0006c4c        0x0 C:/Program Files/Microchip/MPLAB C32/bin/../lib/gcc/pic32mx/3.4.4/../../../../pic32mx/lib/size\libc.a(_mon_getc.o)
 .bss           0xa0006c4c        0x0 C:/Program Files/Microchip/MPLAB C32/bin/../lib/gcc/pic32mx/3.4.4/../../../../pic32mx/lib/size\libc.a(_mon_write.o)
 .bss           0xa0006c4c        0x0 C:/Program Files/Microchip/MPLAB C32/bin/../lib/gcc/pic32mx/3.4.4/../../../../pic32mx/lib/size\libc.a(fullexit.o)
 .bss           0xa0006c4c        0x0 C:/Program Files/Microchip/MPLAB C32/bin/../lib/gcc/pic32mx/3.4.4/../../../../pic32mx/lib/size\libc.a(_mon_putc.o)
 .bss           0xa0006c4c        0x0 C:/Program Files/Microchip/MPLAB C32/bin/../lib/gcc/pic32mx/3.4.4/../../../../pic32mx/lib/size\libm.a(mod32.o)
 .bss           0xa0006c4c        0x0 C:/Program Files/Microchip/MPLAB C32/bin/../lib/gcc/pic32mx/3.4.4/../../../../pic32mx/lib/size\libm.a(dp32.o)
 .bss           0xa0006c4c        0x0 C:/Program Files/Microchip/MPLAB C32/bin/../lib/gcc/pic32mx/3.4.4/../../../../pic32mx/lib/size\libm.a(fp32.o)
 .bss           0xa0006c4c        0x0 C:/Program Files/Microchip/MPLAB C32/bin/../lib/gcc/pic32mx/3.4.4/../../../../pic32mx/lib/size\libmchp_peripheral_32MX795F512L.a(soft_reset_lib.o)
 .bss           0xa0006c4c        0x0 C:/Program Files/Microchip/MPLAB C32/bin/../lib/gcc/pic32mx/3.4.4/../../../../pic32mx/lib/size\libmchp_peripheral_32MX795F512L.a(pcache.o)
 .bss           0xa0006c4c        0x0 C:/Program Files/Microchip/MPLAB C32/bin/../lib/gcc/pic32mx/3.4.4/../../../../pic32mx/lib/size\libmchp_peripheral_32MX795F512L.a(set_core_sw0_leg_lib.o)
 .bss           0xa0006c4c        0x0 C:/Program Files/Microchip/MPLAB C32/bin/../lib/gcc/pic32mx/3.4.4/../../../../pic32mx/lib/size\libmchp_peripheral_32MX795F512L.a(int_disable_interrupts_lib.o)
 .bss           0xa0006c4c        0x0 C:/Program Files/Microchip/MPLAB C32/bin/../lib/gcc/pic32mx/3.4.4/../../../../pic32mx/lib/size\libmchp_peripheral_32MX795F512L.a(int_restore_interrupts_lib.o)
 .bss           0xa0006c4c        0x0 C:/Program Files/Microchip/MPLAB C32/bin/../lib/gcc/pic32mx/3.4.4/../../../../pic32mx/lib/size\libmchp_peripheral_32MX795F512L.a(int_enable_mv_int_lib.o)
 .bss           0xa0006c4c        0x0 C:/Program Files/Microchip/MPLAB C32/bin/../lib/gcc/pic32mx/3.4.4/../../../../pic32mx/lib/size\libmchp_peripheral_32MX795F512L.a(int_tbl_lib.o)
 .bss           0xa0006c4c        0x0 C:/Program Files/Microchip/MPLAB C32/bin/../lib/gcc/pic32mx/3.4.4/../../../../pic32mx/lib/size\libmchp_peripheral_32MX795F512L.a(port_set_pins_digital_out_lib.o)
 .bss           0xa0006c4c        0x0 C:/Program Files/Microchip/MPLAB C32/bin/../lib/gcc/pic32mx/3.4.4/../../../../pic32mx/lib/size\libmchp_peripheral_32MX795F512L.a(port_clear_bits_lib.o)
 .bss           0xa0006c4c        0x0 C:/Program Files/Microchip/MPLAB C32/bin/../lib/gcc/pic32mx/3.4.4/../../../../pic32mx/lib/size\libmchp_peripheral_32MX795F512L.a(port_set_bits_lib.o)
 .bss           0xa0006c4c        0x0 C:/Program Files/Microchip/MPLAB C32/bin/../lib/gcc/pic32mx/3.4.4/../../../../pic32mx/lib/size\libmchp_peripheral_32MX795F512L.a(_ports_tbl_libp.o)
 .bss           0xa0006c4c        0x0 C:/Program Files/Microchip/MPLAB C32/bin/../lib/gcc/pic32mx/3.4.4/../../../../pic32mx/lib/size\libmchp_peripheral_32MX795F512L.a(uart_lib.o)
 .bss           0xa0006c4c        0x0 C:/Program Files/Microchip/MPLAB C32/bin/../lib/gcc/pic32mx/3.4.4/../../../../pic32mx/lib/size\libmchp_peripheral_32MX795F512L.a(puts_uartx_lib_legacy.o)
 .bss           0xa0006c4c        0x0 C:/Program Files/Microchip/MPLAB C32/bin/../lib/gcc/pic32mx/3.4.4/../../../../pic32mx/lib/size\libmchp_peripheral_32MX795F512L.a(int_enable_interrupts_lib.o)
 .bss           0xa0006c4c        0x0 C:/Program Files/Microchip/MPLAB C32/bin/../lib/gcc/pic32mx/3.4.4/size\libgcc.a(_umoddi3.o)
 .bss           0xa0006c4c        0x0 C:/Program Files/Microchip/MPLAB C32/bin/../lib/gcc/pic32mx/3.4.4/../../../../pic32mx/lib/./proc/32MX795F512L\processor.o
 *(COMMON)
 COMMON         0xa0006c4c       0x9a Objects Files\RTOS_init.o
                0xa0006c4c                AppConfig
 *fill*         0xa0006ce6        0x2 00
 COMMON         0xa0006ce8      0x17c Objects Files\WFConsole.o
                0xa0006ce8                g_ConsoleContext
 COMMON         0xa0006e64       0x98 Objects Files\WFEasyConfig.o
                0xa0006e64                g_easyConfigCtx
 COMMON         0xa0006efc       0x9c Objects Files\HTTP2.o
                0xa0006efc                curHTTP
                0xa0006f88                httpStubs
 COMMON         0xa0006f98       0x21 Objects Files\LCDBlocking.o
                0xa0006f98                LCDText
 *fill*         0xa0006fb9        0x3 00
 COMMON         0xa0006fbc        0xa Objects Files\StackTsk.o
                0xa0006fbc                remoteNode
 *fill*         0xa0006fc6        0x2 00
 COMMON         0xa0006fc8       0x7e Objects Files\UDP.o
                0xa0006fc8                UDPSocketInfo
 *fill*         0xa0007046        0x2 00
 COMMON         0xa0007048       0x34 Objects Files\IperfApp.o
                0xa0007048                g_bfr
                0xa000707c                . = ALIGN (0x4)
                0xa000707c                . = ALIGN (0x4)
                0xa000707c                _end = .
                0xa000707c                _bss_end = .

.heap           0xa0007080        0x0 load address 0x9d02c450
                0xa0007080                _heap = .
                0xa0007080                . = (. + _min_heap_size)
                0xa0007080                . = ALIGN (0x8)

.stack          0xa0007080      0x400 load address 0x9d02c450
                0xa0007080                _splim = .
                0xa0007080                _SPLIM = .
                0xa0007480                . = (. + _min_stack_size)
 *fill*         0xa0007080      0x400 00
                0xa0007480                . = ALIGN (0x8)

.ramfunc        0xa0007800        0x0 load address 0x9d02c450
                0xa0007800                _ramfunc_begin = .
 *(.ramfunc .ramfunc.*)
                0xa0007800                . = ALIGN (0x4)
                0xa0007800                _ramfunc_end = .
                0x9d02c450                _ramfunc_image_begin = LOADADDR (.ramfunc)
                0x00000000                _ramfunc_length = SIZEOF (.ramfunc)
                0x00007800                _bmxdkpba_address = (_ramfunc_begin - 0xa0000000)
                0x00020000                _bmxdudba_address = 0x20000
                0x00020000                _bmxdupba_address = 0x20000
                0xa0020000                _stack = (_ramfunc_length > 0x0)?(_ramfunc_begin - 0x4):0xa0020000
                0x00000001                ASSERT (((_min_stack_size + _min_heap_size) <= (_stack - _heap)), Not enough space to allocate both stack and heap.  Reduce heap and/or stack size.)

/DISCARD/
 *(.pdr)
 *(.reginfo)
 *(.rel.dyn)
 *(.note.GNU-stack)

.stab
 *(.stab)

.stabstr
 *(.stabstr)

.stab.excl
 *(.stab.excl)

.stab.exclstr
 *(.stab.exclstr)

.stab.index
 *(.stab.index)

.stab.indexstr
 *(.stab.indexstr)

.mdebug.abi32   0x00000000        0x0
 .mdebug.abi32  0x00000000        0x0 Objects Files\tasks.o
 .mdebug.abi32  0x00000000        0x0 Objects Files\list.o
 .mdebug.abi32  0x00000000        0x0 Objects Files\queue.o
 .mdebug.abi32  0x00000000        0x0 Objects Files\port.o
 .mdebug.abi32  0x00000000        0x0 Objects Files\heap_1.o
 .mdebug.abi32  0x00000000        0x0 Objects Files\WF_Config.o
 .mdebug.abi32  0x00000000        0x0 Objects Files\RTOS_init.o
 .mdebug.abi32  0x00000000        0x0 Objects Files\App_functions.o
 .mdebug.abi32  0x00000000        0x0 Objects Files\App_HTTP_custom.o
 .mdebug.abi32  0x00000000        0x0 Objects Files\TCPIP_init.o
 .mdebug.abi32  0x00000000        0x0 Objects Files\App_init.o
 .mdebug.abi32  0x00000000        0x0 Objects Files\Main.o
 .mdebug.abi32  0x00000000        0x0 Objects Files\Task_HTTP.o
 .mdebug.abi32  0x00000000        0x0 Objects Files\Task_control.o
 .mdebug.abi32  0x00000000        0x0 Objects Files\Task_Network.o
 .mdebug.abi32  0x00000000        0x0 Objects Files\WF_Eint.o
 .mdebug.abi32  0x00000000        0x0 Objects Files\WF_Spi.o
 .mdebug.abi32  0x00000000        0x0 Objects Files\WFConnectionAlgorithm.o
 .mdebug.abi32  0x00000000        0x0 Objects Files\WFConnectionManager.o
 .mdebug.abi32  0x00000000        0x0 Objects Files\WFConnectionProfile.o
 .mdebug.abi32  0x00000000        0x0 Objects Files\WFConsole.o
 .mdebug.abi32  0x00000000        0x0 Objects Files\WFConsoleIfconfig.o
 .mdebug.abi32  0x00000000        0x0 Objects Files\WFConsoleIwconfig.o
 .mdebug.abi32  0x00000000        0x0 Objects Files\WFConsoleIwpriv.o
 .mdebug.abi32  0x00000000        0x0 Objects Files\WFConsoleMsgHandler.o
 .mdebug.abi32  0x00000000        0x0 Objects Files\WFConsoleMsgs.o
 .mdebug.abi32  0x00000000        0x0 Objects Files\WFDataTxRx.o
 .mdebug.abi32  0x00000000        0x0 Objects Files\WFDriverCom.o
 .mdebug.abi32  0x00000000        0x0 Objects Files\WFDriverRaw.o
 .mdebug.abi32  0x00000000        0x0 Objects Files\WFEasyConfig.o
 .mdebug.abi32  0x00000000        0x0 Objects Files\WFEventHandler.o
 .mdebug.abi32  0x00000000        0x0 Objects Files\WFInit.o
 .mdebug.abi32  0x00000000        0x0 Objects Files\WFMac.o
 .mdebug.abi32  0x00000000        0x0 Objects Files\WFMgmtMsg.o
 .mdebug.abi32  0x00000000        0x0 Objects Files\WFParamMsg.o
 .mdebug.abi32  0x00000000        0x0 Objects Files\WFPowerSave.o
 .mdebug.abi32  0x00000000        0x0 Objects Files\WFScan.o
 .mdebug.abi32  0x00000000        0x0 Objects Files\WFTxPower.o
 .mdebug.abi32  0x00000000        0x0 Objects Files\ARCFOUR.o
 .mdebug.abi32  0x00000000        0x0 Objects Files\ARP.o
 .mdebug.abi32  0x00000000        0x0 Objects Files\BigInt.o
 .mdebug.abi32  0x00000000        0x0 Objects Files\Delay.o
 .mdebug.abi32  0x00000000        0x0 Objects Files\DHCPs.o
 .mdebug.abi32  0x00000000        0x0 Objects Files\Hashes.o
 .mdebug.abi32  0x00000000        0x0 Objects Files\Helpers.o
 .mdebug.abi32  0x00000000        0x0 Objects Files\HTTP2.o
 .mdebug.abi32  0x00000000        0x0 Objects Files\ICMP.o
 .mdebug.abi32  0x00000000        0x0 Objects Files\IP.o
 .mdebug.abi32  0x00000000        0x0 Objects Files\LCDBlocking.o
 .mdebug.abi32  0x00000000        0x0 Objects Files\MPFS2.o
 .mdebug.abi32  0x00000000        0x0 Objects Files\NBNS.o
 .mdebug.abi32  0x00000000        0x0 Objects Files\Random.o
 .mdebug.abi32  0x00000000        0x0 Objects Files\Reboot.o
 .mdebug.abi32  0x00000000        0x0 Objects Files\RSA.o
 .mdebug.abi32  0x00000000        0x0 Objects Files\SPIEEPROM.o
 .mdebug.abi32  0x00000000        0x0 Objects Files\StackTsk.o
 .mdebug.abi32  0x00000000        0x0 Objects Files\TCP.o
 .mdebug.abi32  0x00000000        0x0 Objects Files\Tick.o
 .mdebug.abi32  0x00000000        0x0 Objects Files\UDP.o
 .mdebug.abi32  0x00000000        0x0 Objects Files\Task_DebugUART.o
 .mdebug.abi32  0x00000000        0x0 Objects Files\IperfApp.o
 .mdebug.abi32  0x00000000        0x0 C:/Program Files/Microchip/MPLAB C32/bin/../lib/gcc/pic32mx/3.4.4/size\libgcc.a(_udivdi3.o)
 .mdebug.abi32  0x00000000        0x0 C:/Program Files/Microchip/MPLAB C32/bin/../lib/gcc/pic32mx/3.4.4/../../../../pic32mx/lib/size\libc.a(strncpy.o)
 .mdebug.abi32  0x00000000        0x0 C:/Program Files/Microchip/MPLAB C32/bin/../lib/gcc/pic32mx/3.4.4/../../../../pic32mx/lib/size\libc.a(exit.o)
 .mdebug.abi32  0x00000000        0x0 C:/Program Files/Microchip/MPLAB C32/bin/../lib/gcc/pic32mx/3.4.4/../../../../pic32mx/lib/size\libc.a(ctype.o)
 .mdebug.abi32  0x00000000        0x0 C:/Program Files/Microchip/MPLAB C32/bin/../lib/gcc/pic32mx/3.4.4/../../../../pic32mx/lib/size\libc.a(ctypef.o)
 .mdebug.abi32  0x00000000        0x0 C:/Program Files/Microchip/MPLAB C32/bin/../lib/gcc/pic32mx/3.4.4/../../../../pic32mx/lib/size\libc.a(atol.o)
 .mdebug.abi32  0x00000000        0x0 C:/Program Files/Microchip/MPLAB C32/bin/../lib/gcc/pic32mx/3.4.4/../../../../pic32mx/lib/size\libc.a(strtol.o)
 .mdebug.abi32  0x00000000        0x0 C:/Program Files/Microchip/MPLAB C32/bin/../lib/gcc/pic32mx/3.4.4/../../../../pic32mx/lib/size\libc.a(sprintf.o)
 .mdebug.abi32  0x00000000        0x0 C:/Program Files/Microchip/MPLAB C32/bin/../lib/gcc/pic32mx/3.4.4/../../../../pic32mx/lib/size\libc.a(__vsnprintf.o)
 .mdebug.abi32  0x00000000        0x0 C:/Program Files/Microchip/MPLAB C32/bin/../lib/gcc/pic32mx/3.4.4/../../../../pic32mx/lib/size\libc.a(default-bootstrap-exception-handler.o)
 .mdebug.abi32  0x00000000        0x0 C:/Program Files/Microchip/MPLAB C32/bin/../lib/gcc/pic32mx/3.4.4/../../../../pic32mx/lib/size\libc.a(default-on-reset.o)
 .mdebug.abi32  0x00000000        0x0 C:/Program Files/Microchip/MPLAB C32/bin/../lib/gcc/pic32mx/3.4.4/../../../../pic32mx/lib/size\libc.a(default-on-bootstrap.o)
 .mdebug.abi32  0x00000000        0x0 C:/Program Files/Microchip/MPLAB C32/bin/../lib/gcc/pic32mx/3.4.4/../../../../pic32mx/lib/size\libc.a(_exit.o)
 .mdebug.abi32  0x00000000        0x0 C:/Program Files/Microchip/MPLAB C32/bin/../lib/gcc/pic32mx/3.4.4/../../../../pic32mx/lib/size\libc.a(errno.o)
 .mdebug.abi32  0x00000000        0x0 C:/Program Files/Microchip/MPLAB C32/bin/../lib/gcc/pic32mx/3.4.4/../../../../pic32mx/lib/size\libc.a(_doprnt.o)
 .mdebug.abi32  0x00000000        0x0 C:/Program Files/Microchip/MPLAB C32/bin/../lib/gcc/pic32mx/3.4.4/../../../../pic32mx/lib/size\libc.a(_iobdata.o)
 .mdebug.abi32  0x00000000        0x0 C:/Program Files/Microchip/MPLAB C32/bin/../lib/gcc/pic32mx/3.4.4/../../../../pic32mx/lib/size\libc.a(_iobfuncs.o)
 .mdebug.abi32  0x00000000        0x0 C:/Program Files/Microchip/MPLAB C32/bin/../lib/gcc/pic32mx/3.4.4/../../../../pic32mx/lib/size\libc.a(_iobstring.o)
 .mdebug.abi32  0x00000000        0x0 C:/Program Files/Microchip/MPLAB C32/bin/../lib/gcc/pic32mx/3.4.4/../../../../pic32mx/lib/size\libc.a(fputc.o)
 .mdebug.abi32  0x00000000        0x0 C:/Program Files/Microchip/MPLAB C32/bin/../lib/gcc/pic32mx/3.4.4/../../../../pic32mx/lib/size\libc.a(stubs.o)
 .mdebug.abi32  0x00000000        0x0 C:/Program Files/Microchip/MPLAB C32/bin/../lib/gcc/pic32mx/3.4.4/../../../../pic32mx/lib/size\libc.a(_mon_getc.o)
 .mdebug.abi32  0x00000000        0x0 C:/Program Files/Microchip/MPLAB C32/bin/../lib/gcc/pic32mx/3.4.4/../../../../pic32mx/lib/size\libc.a(_mon_write.o)
 .mdebug.abi32  0x00000000        0x0 C:/Program Files/Microchip/MPLAB C32/bin/../lib/gcc/pic32mx/3.4.4/../../../../pic32mx/lib/size\libc.a(fullexit.o)
 .mdebug.abi32  0x00000000        0x0 C:/Program Files/Microchip/MPLAB C32/bin/../lib/gcc/pic32mx/3.4.4/../../../../pic32mx/lib/size\libc.a(_mon_putc.o)
 .mdebug.abi32  0x00000000        0x0 C:/Program Files/Microchip/MPLAB C32/bin/../lib/gcc/pic32mx/3.4.4/../../../../pic32mx/lib/size\libmchp_peripheral_32MX795F512L.a(soft_reset_lib.o)
 .mdebug.abi32  0x00000000        0x0 C:/Program Files/Microchip/MPLAB C32/bin/../lib/gcc/pic32mx/3.4.4/../../../../pic32mx/lib/size\libmchp_peripheral_32MX795F512L.a(pcache.o)
 .mdebug.abi32  0x00000000        0x0 C:/Program Files/Microchip/MPLAB C32/bin/../lib/gcc/pic32mx/3.4.4/../../../../pic32mx/lib/size\libmchp_peripheral_32MX795F512L.a(set_core_sw0_leg_lib.o)
 .mdebug.abi32  0x00000000        0x0 C:/Program Files/Microchip/MPLAB C32/bin/../lib/gcc/pic32mx/3.4.4/../../../../pic32mx/lib/size\libmchp_peripheral_32MX795F512L.a(int_disable_interrupts_lib.o)
 .mdebug.abi32  0x00000000        0x0 C:/Program Files/Microchip/MPLAB C32/bin/../lib/gcc/pic32mx/3.4.4/../../../../pic32mx/lib/size\libmchp_peripheral_32MX795F512L.a(int_restore_interrupts_lib.o)
 .mdebug.abi32  0x00000000        0x0 C:/Program Files/Microchip/MPLAB C32/bin/../lib/gcc/pic32mx/3.4.4/../../../../pic32mx/lib/size\libmchp_peripheral_32MX795F512L.a(int_enable_mv_int_lib.o)
 .mdebug.abi32  0x00000000        0x0 C:/Program Files/Microchip/MPLAB C32/bin/../lib/gcc/pic32mx/3.4.4/../../../../pic32mx/lib/size\libmchp_peripheral_32MX795F512L.a(int_tbl_lib.o)
 .mdebug.abi32  0x00000000        0x0 C:/Program Files/Microchip/MPLAB C32/bin/../lib/gcc/pic32mx/3.4.4/../../../../pic32mx/lib/size\libmchp_peripheral_32MX795F512L.a(port_set_pins_digital_out_lib.o)
 .mdebug.abi32  0x00000000        0x0 C:/Program Files/Microchip/MPLAB C32/bin/../lib/gcc/pic32mx/3.4.4/../../../../pic32mx/lib/size\libmchp_peripheral_32MX795F512L.a(port_clear_bits_lib.o)
 .mdebug.abi32  0x00000000        0x0 C:/Program Files/Microchip/MPLAB C32/bin/../lib/gcc/pic32mx/3.4.4/../../../../pic32mx/lib/size\libmchp_peripheral_32MX795F512L.a(port_set_bits_lib.o)
 .mdebug.abi32  0x00000000        0x0 C:/Program Files/Microchip/MPLAB C32/bin/../lib/gcc/pic32mx/3.4.4/../../../../pic32mx/lib/size\libmchp_peripheral_32MX795F512L.a(_ports_tbl_libp.o)
 .mdebug.abi32  0x00000000        0x0 C:/Program Files/Microchip/MPLAB C32/bin/../lib/gcc/pic32mx/3.4.4/../../../../pic32mx/lib/size\libmchp_peripheral_32MX795F512L.a(uart_lib.o)
 .mdebug.abi32  0x00000000        0x0 C:/Program Files/Microchip/MPLAB C32/bin/../lib/gcc/pic32mx/3.4.4/../../../../pic32mx/lib/size\libmchp_peripheral_32MX795F512L.a(puts_uartx_lib_legacy.o)
 .mdebug.abi32  0x00000000        0x0 C:/Program Files/Microchip/MPLAB C32/bin/../lib/gcc/pic32mx/3.4.4/../../../../pic32mx/lib/size\libmchp_peripheral_32MX795F512L.a(int_enable_interrupts_lib.o)
 .mdebug.abi32  0x00000000        0x0 C:/Program Files/Microchip/MPLAB C32/bin/../lib/gcc/pic32mx/3.4.4/size\libgcc.a(_umoddi3.o)

.comment        0x00000000     0x2582
 *(.comment)
 .comment       0x00000000       0x50 Objects Files\tasks.o
 .comment       0x00000050       0x50 Objects Files\list.o
 .comment       0x000000a0       0x50 Objects Files\queue.o
 .comment       0x000000f0       0x50 Objects Files\port.o
 .comment       0x00000140       0x50 Objects Files\heap_1.o
 .comment       0x00000190       0x50 Objects Files\WF_Config.o
 .comment       0x000001e0       0x50 Objects Files\RTOS_init.o
 .comment       0x00000230       0x50 Objects Files\App_functions.o
 .comment       0x00000280       0x50 Objects Files\App_HTTP_custom.o
 .comment       0x000002d0       0x50 Objects Files\TCPIP_init.o
 .comment       0x00000320       0x50 Objects Files\App_init.o
 .comment       0x00000370       0x50 Objects Files\Main.o
 .comment       0x000003c0       0x50 Objects Files\Task_HTTP.o
 .comment       0x00000410       0x50 Objects Files\Task_control.o
 .comment       0x00000460       0x50 Objects Files\Task_Network.o
 .comment       0x000004b0       0x50 Objects Files\WF_Eint.o
 .comment       0x00000500       0x50 Objects Files\WF_Spi.o
 .comment       0x00000550       0x50 Objects Files\WFConnectionAlgorithm.o
 .comment       0x000005a0       0x50 Objects Files\WFConnectionManager.o
 .comment       0x000005f0       0x50 Objects Files\WFConnectionProfile.o
 .comment       0x00000640       0x50 Objects Files\WFConsole.o
 .comment       0x00000690       0x50 Objects Files\WFConsoleIfconfig.o
 .comment       0x000006e0       0x50 Objects Files\WFConsoleIwconfig.o
 .comment       0x00000730       0x50 Objects Files\WFConsoleIwpriv.o
 .comment       0x00000780       0x50 Objects Files\WFConsoleMsgHandler.o
 .comment       0x000007d0       0x50 Objects Files\WFConsoleMsgs.o
 .comment       0x00000820       0x50 Objects Files\WFDataTxRx.o
 .comment       0x00000870       0x50 Objects Files\WFDriverCom.o
 .comment       0x000008c0       0x50 Objects Files\WFDriverRaw.o
 .comment       0x00000910       0x50 Objects Files\WFEasyConfig.o
 .comment       0x00000960       0x50 Objects Files\WFEventHandler.o
 .comment       0x000009b0       0x50 Objects Files\WFInit.o
 .comment       0x00000a00       0x50 Objects Files\WFMac.o
 .comment       0x00000a50       0x50 Objects Files\WFMgmtMsg.o
 .comment       0x00000aa0       0x50 Objects Files\WFParamMsg.o
 .comment       0x00000af0       0x50 Objects Files\WFPowerSave.o
 .comment       0x00000b40       0x50 Objects Files\WFScan.o
 .comment       0x00000b90       0x50 Objects Files\WFTxPower.o
 .comment       0x00000be0       0x50 Objects Files\ARCFOUR.o
 .comment       0x00000c30       0x50 Objects Files\ARP.o
 .comment       0x00000c80       0x50 Objects Files\BigInt.o
 .comment       0x00000cd0       0x50 Objects Files\Delay.o
 .comment       0x00000d20       0x50 Objects Files\DHCPs.o
 .comment       0x00000d70       0x50 Objects Files\Hashes.o
 .comment       0x00000dc0       0x50 Objects Files\Helpers.o
 .comment       0x00000e10       0x50 Objects Files\HTTP2.o
 .comment       0x00000e60       0x50 Objects Files\ICMP.o
 .comment       0x00000eb0       0x50 Objects Files\IP.o
 .comment       0x00000f00       0x50 Objects Files\LCDBlocking.o
 .comment       0x00000f50       0x50 Objects Files\MPFS2.o
 .comment       0x00000fa0       0x50 Objects Files\NBNS.o
 .comment       0x00000ff0       0x50 Objects Files\Random.o
 .comment       0x00001040       0x50 Objects Files\Reboot.o
 .comment       0x00001090       0x50 Objects Files\RSA.o
 .comment       0x000010e0       0x50 Objects Files\SPIEEPROM.o
 .comment       0x00001130       0x50 Objects Files\StackTsk.o
 .comment       0x00001180       0x50 Objects Files\TCP.o
 .comment       0x000011d0       0x50 Objects Files\Tick.o
 .comment       0x00001220       0x50 Objects Files\UDP.o
 .comment       0x00001270       0x50 Objects Files\Task_DebugUART.o
 .comment       0x000012c0       0x50 Objects Files\IperfApp.o
 .comment       0x00001310       0x4d C:/Program Files/Microchip/MPLAB C32/bin/../lib/gcc/pic32mx/3.4.4/size\libgcc.a(_udivdi3.o)
 .comment       0x0000135d       0x56 C:/Program Files/Microchip/MPLAB C32/bin/../lib/gcc/pic32mx/3.4.4/../../../../pic32mx/lib/size\libc.a(memcmp.o)
 .comment       0x000013b3       0x56 C:/Program Files/Microchip/MPLAB C32/bin/../lib/gcc/pic32mx/3.4.4/../../../../pic32mx/lib/size\libc.a(memset.o)
 .comment       0x00001409       0x56 C:/Program Files/Microchip/MPLAB C32/bin/../lib/gcc/pic32mx/3.4.4/../../../../pic32mx/lib/size\libc.a(strcmp.o)
 .comment       0x0000145f       0x56 C:/Program Files/Microchip/MPLAB C32/bin/../lib/gcc/pic32mx/3.4.4/../../../../pic32mx/lib/size\libc.a(strcpy.o)
 .comment       0x000014b5       0x56 C:/Program Files/Microchip/MPLAB C32/bin/../lib/gcc/pic32mx/3.4.4/../../../../pic32mx/lib/size\libc.a(strlen.o)
 .comment       0x0000150b       0x9d C:/Program Files/Microchip/MPLAB C32/bin/../lib/gcc/pic32mx/3.4.4/../../../../pic32mx/lib/size\libc.a(strncpy.o)
 .comment       0x000015a8       0x9a C:/Program Files/Microchip/MPLAB C32/bin/../lib/gcc/pic32mx/3.4.4/../../../../pic32mx/lib/size\libc.a(exit.o)
 .comment       0x00001642       0x9b C:/Program Files/Microchip/MPLAB C32/bin/../lib/gcc/pic32mx/3.4.4/../../../../pic32mx/lib/size\libc.a(ctype.o)
 .comment       0x000016dd       0x9c C:/Program Files/Microchip/MPLAB C32/bin/../lib/gcc/pic32mx/3.4.4/../../../../pic32mx/lib/size\libc.a(ctypef.o)
 .comment       0x00001779       0x9a C:/Program Files/Microchip/MPLAB C32/bin/../lib/gcc/pic32mx/3.4.4/../../../../pic32mx/lib/size\libc.a(atol.o)
 .comment       0x00001813       0x9c C:/Program Files/Microchip/MPLAB C32/bin/../lib/gcc/pic32mx/3.4.4/../../../../pic32mx/lib/size\libc.a(strtol.o)
 .comment       0x000018af       0x9f C:/Program Files/Microchip/MPLAB C32/bin/../lib/gcc/pic32mx/3.4.4/../../../../pic32mx/lib/size\libc.a(sprintf.o)
 .comment       0x0000194e       0xa3 C:/Program Files/Microchip/MPLAB C32/bin/../lib/gcc/pic32mx/3.4.4/../../../../pic32mx/lib/size\libc.a(__vsnprintf.o)
 .comment       0x000019f1       0x4d C:/Program Files/Microchip/MPLAB C32/bin/../lib/gcc/pic32mx/3.4.4/../../../../pic32mx/lib/size\libc.a(default-bootstrap-exception-handler.o)
 .comment       0x00001a3e       0x4d C:/Program Files/Microchip/MPLAB C32/bin/../lib/gcc/pic32mx/3.4.4/../../../../pic32mx/lib/size\libc.a(default-on-reset.o)
 .comment       0x00001a8b       0x4d C:/Program Files/Microchip/MPLAB C32/bin/../lib/gcc/pic32mx/3.4.4/../../../../pic32mx/lib/size\libc.a(default-on-bootstrap.o)
 .comment       0x00001ad8       0x4d C:/Program Files/Microchip/MPLAB C32/bin/../lib/gcc/pic32mx/3.4.4/../../../../pic32mx/lib/size\libc.a(_exit.o)
 .comment       0x00001b25       0x9b C:/Program Files/Microchip/MPLAB C32/bin/../lib/gcc/pic32mx/3.4.4/../../../../pic32mx/lib/size\libc.a(errno.o)
 .comment       0x00001bc0       0x9f C:/Program Files/Microchip/MPLAB C32/bin/../lib/gcc/pic32mx/3.4.4/../../../../pic32mx/lib/size\libc.a(_doprnt.o)
 .comment       0x00001c5f       0xa0 C:/Program Files/Microchip/MPLAB C32/bin/../lib/gcc/pic32mx/3.4.4/../../../../pic32mx/lib/size\libc.a(_iobdata.o)
 .comment       0x00001cff       0xa1 C:/Program Files/Microchip/MPLAB C32/bin/../lib/gcc/pic32mx/3.4.4/../../../../pic32mx/lib/size\libc.a(_iobfuncs.o)
 .comment       0x00001da0       0xa2 C:/Program Files/Microchip/MPLAB C32/bin/../lib/gcc/pic32mx/3.4.4/../../../../pic32mx/lib/size\libc.a(_iobstring.o)
 .comment       0x00001e42       0x9d C:/Program Files/Microchip/MPLAB C32/bin/../lib/gcc/pic32mx/3.4.4/../../../../pic32mx/lib/size\libc.a(fputc.o)
 .comment       0x00001edf       0x9b C:/Program Files/Microchip/MPLAB C32/bin/../lib/gcc/pic32mx/3.4.4/../../../../pic32mx/lib/size\libc.a(stubs.o)
 .comment       0x00001f7a       0x4d C:/Program Files/Microchip/MPLAB C32/bin/../lib/gcc/pic32mx/3.4.4/../../../../pic32mx/lib/size\libc.a(_mon_getc.o)
 .comment       0x00001fc7       0x4d C:/Program Files/Microchip/MPLAB C32/bin/../lib/gcc/pic32mx/3.4.4/../../../../pic32mx/lib/size\libc.a(_mon_write.o)
 .comment       0x00002014       0x9e C:/Program Files/Microchip/MPLAB C32/bin/../lib/gcc/pic32mx/3.4.4/../../../../pic32mx/lib/size\libc.a(fullexit.o)
 .comment       0x000020b2       0x4d C:/Program Files/Microchip/MPLAB C32/bin/../lib/gcc/pic32mx/3.4.4/../../../../pic32mx/lib/size\libc.a(_mon_putc.o)
 .comment       0x000020ff       0x4d C:/Program Files/Microchip/MPLAB C32/bin/../lib/gcc/pic32mx/3.4.4/../../../../pic32mx/lib/size\libmchp_peripheral_32MX795F512L.a(soft_reset_lib.o)
 .comment       0x0000214c       0x4d C:/Program Files/Microchip/MPLAB C32/bin/../lib/gcc/pic32mx/3.4.4/../../../../pic32mx/lib/size\libmchp_peripheral_32MX795F512L.a(pcache.o)
 .comment       0x00002199       0x4d C:/Program Files/Microchip/MPLAB C32/bin/../lib/gcc/pic32mx/3.4.4/../../../../pic32mx/lib/size\libmchp_peripheral_32MX795F512L.a(set_core_sw0_leg_lib.o)
 .comment       0x000021e6       0x4d C:/Program Files/Microchip/MPLAB C32/bin/../lib/gcc/pic32mx/3.4.4/../../../../pic32mx/lib/size\libmchp_peripheral_32MX795F512L.a(int_disable_interrupts_lib.o)
 .comment       0x00002233       0x4d C:/Program Files/Microchip/MPLAB C32/bin/../lib/gcc/pic32mx/3.4.4/../../../../pic32mx/lib/size\libmchp_peripheral_32MX795F512L.a(int_restore_interrupts_lib.o)
 .comment       0x00002280       0x4d C:/Program Files/Microchip/MPLAB C32/bin/../lib/gcc/pic32mx/3.4.4/../../../../pic32mx/lib/size\libmchp_peripheral_32MX795F512L.a(int_enable_mv_int_lib.o)
 .comment       0x000022cd       0x4d C:/Program Files/Microchip/MPLAB C32/bin/../lib/gcc/pic32mx/3.4.4/../../../../pic32mx/lib/size\libmchp_peripheral_32MX795F512L.a(int_tbl_lib.o)
 .comment       0x0000231a       0x4d C:/Program Files/Microchip/MPLAB C32/bin/../lib/gcc/pic32mx/3.4.4/../../../../pic32mx/lib/size\libmchp_peripheral_32MX795F512L.a(port_set_pins_digital_out_lib.o)
 .comment       0x00002367       0x4d C:/Program Files/Microchip/MPLAB C32/bin/../lib/gcc/pic32mx/3.4.4/../../../../pic32mx/lib/size\libmchp_peripheral_32MX795F512L.a(port_clear_bits_lib.o)
 .comment       0x000023b4       0x4d C:/Program Files/Microchip/MPLAB C32/bin/../lib/gcc/pic32mx/3.4.4/../../../../pic32mx/lib/size\libmchp_peripheral_32MX795F512L.a(port_set_bits_lib.o)
 .comment       0x00002401       0x4d C:/Program Files/Microchip/MPLAB C32/bin/../lib/gcc/pic32mx/3.4.4/../../../../pic32mx/lib/size\libmchp_peripheral_32MX795F512L.a(_ports_tbl_libp.o)
 .comment       0x0000244e       0x4d C:/Program Files/Microchip/MPLAB C32/bin/../lib/gcc/pic32mx/3.4.4/../../../../pic32mx/lib/size\libmchp_peripheral_32MX795F512L.a(uart_lib.o)
 .comment       0x0000249b       0x4d C:/Program Files/Microchip/MPLAB C32/bin/../lib/gcc/pic32mx/3.4.4/../../../../pic32mx/lib/size\libmchp_peripheral_32MX795F512L.a(puts_uartx_lib_legacy.o)
 .comment       0x000024e8       0x4d C:/Program Files/Microchip/MPLAB C32/bin/../lib/gcc/pic32mx/3.4.4/../../../../pic32mx/lib/size\libmchp_peripheral_32MX795F512L.a(int_enable_interrupts_lib.o)
 .comment       0x00002535       0x4d C:/Program Files/Microchip/MPLAB C32/bin/../lib/gcc/pic32mx/3.4.4/size\libgcc.a(_umoddi3.o)

.debug
 *(.debug)

.line
 *(.line)

.debug_srcinfo
 *(.debug_srcinfo)

.debug_sfnames
 *(.debug_sfnames)

.debug_aranges  0x00000000      0xd98
 *(.debug_aranges)
 .debug_aranges
                0x00000000       0x20 Objects Files\tasks.o
 .debug_aranges
                0x00000020       0x20 Objects Files\list.o
 .debug_aranges
                0x00000040       0x20 Objects Files\queue.o
 .debug_aranges
                0x00000060       0x20 Objects Files\port.o
 .debug_aranges
                0x00000080       0x20 Objects Files\heap_1.o
 .debug_aranges
                0x000000a0       0x20 Objects Files\WF_Config.o
 .debug_aranges
                0x000000c0       0x20 Objects Files\RTOS_init.o
 .debug_aranges
                0x000000e0       0x20 Objects Files\App_functions.o
 .debug_aranges
                0x00000100       0x20 Objects Files\App_HTTP_custom.o
 .debug_aranges
                0x00000120       0x20 Objects Files\TCPIP_init.o
 .debug_aranges
                0x00000140       0x20 Objects Files\App_init.o
 .debug_aranges
                0x00000160       0x20 Objects Files\Main.o
 .debug_aranges
                0x00000180       0x20 Objects Files\Task_HTTP.o
 .debug_aranges
                0x000001a0       0x20 Objects Files\Task_control.o
 .debug_aranges
                0x000001c0       0x20 Objects Files\Task_Network.o
 .debug_aranges
                0x000001e0       0x20 Objects Files\WF_Eint.o
 .debug_aranges
                0x00000200       0x20 Objects Files\WF_Spi.o
 .debug_aranges
                0x00000220       0x20 Objects Files\WFConnectionAlgorithm.o
 .debug_aranges
                0x00000240       0x20 Objects Files\WFConnectionManager.o
 .debug_aranges
                0x00000260       0x20 Objects Files\WFConnectionProfile.o
 .debug_aranges
                0x00000280       0x20 Objects Files\WFConsole.o
 .debug_aranges
                0x000002a0       0x20 Objects Files\WFConsoleMsgHandler.o
 .debug_aranges
                0x000002c0       0x20 Objects Files\WFConsoleMsgs.o
 .debug_aranges
                0x000002e0       0x20 Objects Files\WFDriverCom.o
 .debug_aranges
                0x00000300       0x20 Objects Files\WFDriverRaw.o
 .debug_aranges
                0x00000320       0x20 Objects Files\WFEasyConfig.o
 .debug_aranges
                0x00000340       0x20 Objects Files\WFEventHandler.o
 .debug_aranges
                0x00000360       0x20 Objects Files\WFInit.o
 .debug_aranges
                0x00000380       0x20 Objects Files\WFMac.o
 .debug_aranges
                0x000003a0       0x20 Objects Files\WFMgmtMsg.o
 .debug_aranges
                0x000003c0       0x20 Objects Files\WFParamMsg.o
 .debug_aranges
                0x000003e0       0x20 Objects Files\WFPowerSave.o
 .debug_aranges
                0x00000400       0x20 Objects Files\WFScan.o
 .debug_aranges
                0x00000420       0x20 Objects Files\WFTxPower.o
 .debug_aranges
                0x00000440       0x20 Objects Files\ARP.o
 .debug_aranges
                0x00000460       0x20 Objects Files\Delay.o
 .debug_aranges
                0x00000480       0x20 Objects Files\DHCPs.o
 .debug_aranges
                0x000004a0       0x20 Objects Files\Helpers.o
 .debug_aranges
                0x000004c0       0x20 Objects Files\HTTP2.o
 .debug_aranges
                0x000004e0       0x20 Objects Files\ICMP.o
 .debug_aranges
                0x00000500       0x20 Objects Files\IP.o
 .debug_aranges
                0x00000520       0x20 Objects Files\LCDBlocking.o
 .debug_aranges
                0x00000540       0x20 Objects Files\MPFS2.o
 .debug_aranges
                0x00000560       0x20 Objects Files\SPIEEPROM.o
 .debug_aranges
                0x00000580       0x20 Objects Files\StackTsk.o
 .debug_aranges
                0x000005a0       0x20 Objects Files\TCP.o
 .debug_aranges
                0x000005c0       0x20 Objects Files\Tick.o
 .debug_aranges
                0x000005e0       0x20 Objects Files\UDP.o
 .debug_aranges
                0x00000600       0x20 Objects Files\Task_DebugUART.o
 .debug_aranges
                0x00000620       0x20 Objects Files\IperfApp.o
 .debug_aranges
                0x00000640       0x28 C:/Program Files/Microchip/MPLAB C32/bin/../lib/gcc/pic32mx/3.4.4/../../../../pic32mx/lib/size\libc.a(strncpy.o)
 .debug_aranges
                0x00000668       0x28 C:/Program Files/Microchip/MPLAB C32/bin/../lib/gcc/pic32mx/3.4.4/../../../../pic32mx/lib/size\libc.a(exit.o)
 .debug_aranges
                0x00000690       0xa8 C:/Program Files/Microchip/MPLAB C32/bin/../lib/gcc/pic32mx/3.4.4/../../../../pic32mx/lib/size\libc.a(ctypef.o)
 .debug_aranges
                0x00000738       0x28 C:/Program Files/Microchip/MPLAB C32/bin/../lib/gcc/pic32mx/3.4.4/../../../../pic32mx/lib/size\libc.a(atol.o)
 .debug_aranges
                0x00000760       0x28 C:/Program Files/Microchip/MPLAB C32/bin/../lib/gcc/pic32mx/3.4.4/../../../../pic32mx/lib/size\libc.a(strtol.o)
 .debug_aranges
                0x00000788       0x28 C:/Program Files/Microchip/MPLAB C32/bin/../lib/gcc/pic32mx/3.4.4/../../../../pic32mx/lib/size\libc.a(sprintf.o)
 .debug_aranges
                0x000007b0       0x28 C:/Program Files/Microchip/MPLAB C32/bin/../lib/gcc/pic32mx/3.4.4/../../../../pic32mx/lib/size\libc.a(__vsnprintf.o)
 .debug_aranges
                0x000007d8       0x28 C:/Program Files/Microchip/MPLAB C32/bin/../lib/gcc/pic32mx/3.4.4/../../../../pic32mx/lib/size\libc.a(default-bootstrap-exception-handler.o)
 .debug_aranges
                0x00000800       0x28 C:/Program Files/Microchip/MPLAB C32/bin/../lib/gcc/pic32mx/3.4.4/../../../../pic32mx/lib/size\libc.a(default-on-reset.o)
 .debug_aranges
                0x00000828       0x28 C:/Program Files/Microchip/MPLAB C32/bin/../lib/gcc/pic32mx/3.4.4/../../../../pic32mx/lib/size\libc.a(default-on-bootstrap.o)
 .debug_aranges
                0x00000850       0x28 C:/Program Files/Microchip/MPLAB C32/bin/../lib/gcc/pic32mx/3.4.4/../../../../pic32mx/lib/size\libc.a(_exit.o)
 .debug_aranges
                0x00000878       0x50 C:/Program Files/Microchip/MPLAB C32/bin/../lib/gcc/pic32mx/3.4.4/../../../../pic32mx/lib/size\libc.a(_doprnt.o)
 .debug_aranges
                0x000008c8       0x50 C:/Program Files/Microchip/MPLAB C32/bin/../lib/gcc/pic32mx/3.4.4/../../../../pic32mx/lib/size\libc.a(_iobfuncs.o)
 .debug_aranges
                0x00000918       0x48 C:/Program Files/Microchip/MPLAB C32/bin/../lib/gcc/pic32mx/3.4.4/../../../../pic32mx/lib/size\libc.a(_iobstring.o)
 .debug_aranges
                0x00000960       0x38 C:/Program Files/Microchip/MPLAB C32/bin/../lib/gcc/pic32mx/3.4.4/../../../../pic32mx/lib/size\libc.a(fputc.o)
 .debug_aranges
                0x00000998       0xd0 C:/Program Files/Microchip/MPLAB C32/bin/../lib/gcc/pic32mx/3.4.4/../../../../pic32mx/lib/size\libc.a(stubs.o)
 .debug_aranges
                0x00000a68       0x28 C:/Program Files/Microchip/MPLAB C32/bin/../lib/gcc/pic32mx/3.4.4/../../../../pic32mx/lib/size\libc.a(_mon_getc.o)
 .debug_aranges
                0x00000a90       0x28 C:/Program Files/Microchip/MPLAB C32/bin/../lib/gcc/pic32mx/3.4.4/../../../../pic32mx/lib/size\libc.a(_mon_write.o)
 .debug_aranges
                0x00000ab8       0x28 C:/Program Files/Microchip/MPLAB C32/bin/../lib/gcc/pic32mx/3.4.4/../../../../pic32mx/lib/size\libc.a(fullexit.o)
 .debug_aranges
                0x00000ae0       0x28 C:/Program Files/Microchip/MPLAB C32/bin/../lib/gcc/pic32mx/3.4.4/../../../../pic32mx/lib/size\libc.a(_mon_putc.o)
 .debug_aranges
                0x00000b08       0x28 C:/Program Files/Microchip/MPLAB C32/bin/../lib/gcc/pic32mx/3.4.4/../../../../pic32mx/lib/size\libmchp_peripheral_32MX795F512L.a(soft_reset_lib.o)
 .debug_aranges
                0x00000b30       0x30 C:/Program Files/Microchip/MPLAB C32/bin/../lib/gcc/pic32mx/3.4.4/../../../../pic32mx/lib/size\libmchp_peripheral_32MX795F512L.a(pcache.o)
 .debug_aranges
                0x00000b60       0x28 C:/Program Files/Microchip/MPLAB C32/bin/../lib/gcc/pic32mx/3.4.4/../../../../pic32mx/lib/size\libmchp_peripheral_32MX795F512L.a(set_core_sw0_leg_lib.o)
 .debug_aranges
                0x00000b88       0x28 C:/Program Files/Microchip/MPLAB C32/bin/../lib/gcc/pic32mx/3.4.4/../../../../pic32mx/lib/size\libmchp_peripheral_32MX795F512L.a(int_disable_interrupts_lib.o)
 .debug_aranges
                0x00000bb0       0x28 C:/Program Files/Microchip/MPLAB C32/bin/../lib/gcc/pic32mx/3.4.4/../../../../pic32mx/lib/size\libmchp_peripheral_32MX795F512L.a(int_restore_interrupts_lib.o)
 .debug_aranges
                0x00000bd8       0x28 C:/Program Files/Microchip/MPLAB C32/bin/../lib/gcc/pic32mx/3.4.4/../../../../pic32mx/lib/size\libmchp_peripheral_32MX795F512L.a(int_enable_mv_int_lib.o)
 .debug_aranges
                0x00000c00       0x68 C:/Program Files/Microchip/MPLAB C32/bin/../lib/gcc/pic32mx/3.4.4/../../../../pic32mx/lib/size\libmchp_peripheral_32MX795F512L.a(int_tbl_lib.o)
 .debug_aranges
                0x00000c68       0x28 C:/Program Files/Microchip/MPLAB C32/bin/../lib/gcc/pic32mx/3.4.4/../../../../pic32mx/lib/size\libmchp_peripheral_32MX795F512L.a(port_set_pins_digital_out_lib.o)
 .debug_aranges
                0x00000c90       0x28 C:/Program Files/Microchip/MPLAB C32/bin/../lib/gcc/pic32mx/3.4.4/../../../../pic32mx/lib/size\libmchp_peripheral_32MX795F512L.a(port_clear_bits_lib.o)
 .debug_aranges
                0x00000cb8       0x28 C:/Program Files/Microchip/MPLAB C32/bin/../lib/gcc/pic32mx/3.4.4/../../../../pic32mx/lib/size\libmchp_peripheral_32MX795F512L.a(port_set_bits_lib.o)
 .debug_aranges
                0x00000ce0       0x60 C:/Program Files/Microchip/MPLAB C32/bin/../lib/gcc/pic32mx/3.4.4/../../../../pic32mx/lib/size\libmchp_peripheral_32MX795F512L.a(uart_lib.o)
 .debug_aranges
                0x00000d40       0x30 C:/Program Files/Microchip/MPLAB C32/bin/../lib/gcc/pic32mx/3.4.4/../../../../pic32mx/lib/size\libmchp_peripheral_32MX795F512L.a(puts_uartx_lib_legacy.o)
 .debug_aranges
                0x00000d70       0x28 C:/Program Files/Microchip/MPLAB C32/bin/../lib/gcc/pic32mx/3.4.4/../../../../pic32mx/lib/size\libmchp_peripheral_32MX795F512L.a(int_enable_interrupts_lib.o)

.debug_pubnames
                0x00000000     0x3fba
 *(.debug_pubnames)
 .debug_pubnames
                0x00000000      0x1bc Objects Files\tasks.o
 .debug_pubnames
                0x000001bc       0x71 Objects Files\list.o
 .debug_pubnames
                0x0000022d      0x111 Objects Files\queue.o
 .debug_pubnames
                0x0000033e      0x123 Objects Files\port.o
 .debug_pubnames
                0x00000461       0x64 Objects Files\heap_1.o
 .debug_pubnames
                0x000004c5       0x3d Objects Files\WF_Config.o
 .debug_pubnames
                0x00000502      0x1d0 Objects Files\RTOS_init.o
 .debug_pubnames
                0x000006d2      0x237 Objects Files\App_functions.o
 .debug_pubnames
                0x00000909      0x2f0 Objects Files\App_HTTP_custom.o
 .debug_pubnames
                0x00000bf9      0x22d Objects Files\TCPIP_init.o
 .debug_pubnames
                0x00000e26      0x1e5 Objects Files\App_init.o
 .debug_pubnames
                0x0000100b      0x237 Objects Files\Main.o
 .debug_pubnames
                0x00001242      0x1d7 Objects Files\Task_HTTP.o
 .debug_pubnames
                0x00001419      0x1d3 Objects Files\Task_control.o
 .debug_pubnames
                0x000015ec      0x1d3 Objects Files\Task_Network.o
 .debug_pubnames
                0x000017bf       0x83 Objects Files\WF_Eint.o
 .debug_pubnames
                0x00001842       0x66 Objects Files\WF_Spi.o
 .debug_pubnames
                0x000018a8      0x339 Objects Files\WFConnectionAlgorithm.o
 .debug_pubnames
                0x00001be1       0x83 Objects Files\WFConnectionManager.o
 .debug_pubnames
                0x00001c64      0x17e Objects Files\WFConnectionProfile.o
 .debug_pubnames
                0x00001de2      0x143 Objects Files\WFConsole.o
 .debug_pubnames
                0x00001f25       0x3f Objects Files\WFConsoleMsgHandler.o
 .debug_pubnames
                0x00001f64      0x163 Objects Files\WFConsoleMsgs.o
 .debug_pubnames
                0x000020c7       0xd7 Objects Files\WFDriverCom.o
 .debug_pubnames
                0x0000219e      0x1c8 Objects Files\WFDriverRaw.o
 .debug_pubnames
                0x00002366       0xc1 Objects Files\WFEasyConfig.o
 .debug_pubnames
                0x00002427       0x2f Objects Files\WFEventHandler.o
 .debug_pubnames
                0x00002456       0x1e Objects Files\WFInit.o
 .debug_pubnames
                0x00002474      0x228 Objects Files\WFMac.o
 .debug_pubnames
                0x0000269c       0xb0 Objects Files\WFMgmtMsg.o
 .debug_pubnames
                0x0000274c      0x184 Objects Files\WFParamMsg.o
 .debug_pubnames
                0x000028d0       0xc6 Objects Files\WFPowerSave.o
 .debug_pubnames
                0x00002996       0x33 Objects Files\WFScan.o
 .debug_pubnames
                0x000029c9       0xe2 Objects Files\WFTxPower.o
 .debug_pubnames
                0x00002aab       0x60 Objects Files\ARP.o
 .debug_pubnames
                0x00002b0b       0x2c Objects Files\Delay.o
 .debug_pubnames
                0x00002b37       0x3c Objects Files\DHCPs.o
 .debug_pubnames
                0x00002b73      0x11f Objects Files\Helpers.o
 .debug_pubnames
                0x00002c92       0xcf Objects Files\HTTP2.o
 .debug_pubnames
                0x00002d61       0x22 Objects Files\ICMP.o
 .debug_pubnames
                0x00002d83       0x44 Objects Files\IP.o
 .debug_pubnames
                0x00002dc7       0x45 Objects Files\LCDBlocking.o
 .debug_pubnames
                0x00002e0c      0x17c Objects Files\MPFS2.o
 .debug_pubnames
                0x00002f88       0xaa Objects Files\SPIEEPROM.o
 .debug_pubnames
                0x00003032       0x53 Objects Files\StackTsk.o
 .debug_pubnames
                0x00003085      0x1ba Objects Files\TCP.o
 .debug_pubnames
                0x0000323f       0x7e Objects Files\Tick.o
 .debug_pubnames
                0x000032bd      0x143 Objects Files\UDP.o
 .debug_pubnames
                0x00003400      0x1d5 Objects Files\Task_DebugUART.o
 .debug_pubnames
                0x000035d5       0x3e Objects Files\IperfApp.o
 .debug_pubnames
                0x00003613       0x1e C:/Program Files/Microchip/MPLAB C32/bin/../lib/gcc/pic32mx/3.4.4/../../../../pic32mx/lib/size\libc.a(strncpy.o)
 .debug_pubnames
                0x00003631       0x1b C:/Program Files/Microchip/MPLAB C32/bin/../lib/gcc/pic32mx/3.4.4/../../../../pic32mx/lib/size\libc.a(exit.o)
 .debug_pubnames
                0x0000364c       0xe1 C:/Program Files/Microchip/MPLAB C32/bin/../lib/gcc/pic32mx/3.4.4/../../../../pic32mx/lib/size\libc.a(ctypef.o)
 .debug_pubnames
                0x0000372d       0x1b C:/Program Files/Microchip/MPLAB C32/bin/../lib/gcc/pic32mx/3.4.4/../../../../pic32mx/lib/size\libc.a(atol.o)
 .debug_pubnames
                0x00003748       0x1d C:/Program Files/Microchip/MPLAB C32/bin/../lib/gcc/pic32mx/3.4.4/../../../../pic32mx/lib/size\libc.a(strtol.o)
 .debug_pubnames
                0x00003765       0x1e C:/Program Files/Microchip/MPLAB C32/bin/../lib/gcc/pic32mx/3.4.4/../../../../pic32mx/lib/size\libc.a(sprintf.o)
 .debug_pubnames
                0x00003783       0x22 C:/Program Files/Microchip/MPLAB C32/bin/../lib/gcc/pic32mx/3.4.4/../../../../pic32mx/lib/size\libc.a(__vsnprintf.o)
 .debug_pubnames
                0x000037a5       0x33 C:/Program Files/Microchip/MPLAB C32/bin/../lib/gcc/pic32mx/3.4.4/../../../../pic32mx/lib/size\libc.a(default-bootstrap-exception-handler.o)
 .debug_pubnames
                0x000037d8       0x20 C:/Program Files/Microchip/MPLAB C32/bin/../lib/gcc/pic32mx/3.4.4/../../../../pic32mx/lib/size\libc.a(default-on-reset.o)
 .debug_pubnames
                0x000037f8       0x24 C:/Program Files/Microchip/MPLAB C32/bin/../lib/gcc/pic32mx/3.4.4/../../../../pic32mx/lib/size\libc.a(default-on-bootstrap.o)
 .debug_pubnames
                0x0000381c       0x1c C:/Program Files/Microchip/MPLAB C32/bin/../lib/gcc/pic32mx/3.4.4/../../../../pic32mx/lib/size\libc.a(_exit.o)
 .debug_pubnames
                0x00003838       0x2c C:/Program Files/Microchip/MPLAB C32/bin/../lib/gcc/pic32mx/3.4.4/../../../../pic32mx/lib/size\libc.a(_doprnt.o)
 .debug_pubnames
                0x00003864       0x7d C:/Program Files/Microchip/MPLAB C32/bin/../lib/gcc/pic32mx/3.4.4/../../../../pic32mx/lib/size\libc.a(_iobfuncs.o)
 .debug_pubnames
                0x000038e1       0x31 C:/Program Files/Microchip/MPLAB C32/bin/../lib/gcc/pic32mx/3.4.4/../../../../pic32mx/lib/size\libc.a(fputc.o)
 .debug_pubnames
                0x00003912      0x2da C:/Program Files/Microchip/MPLAB C32/bin/../lib/gcc/pic32mx/3.4.4/../../../../pic32mx/lib/size\libc.a(stubs.o)
 .debug_pubnames
                0x00003bec       0x20 C:/Program Files/Microchip/MPLAB C32/bin/../lib/gcc/pic32mx/3.4.4/../../../../pic32mx/lib/size\libc.a(_mon_getc.o)
 .debug_pubnames
                0x00003c0c       0x21 C:/Program Files/Microchip/MPLAB C32/bin/../lib/gcc/pic32mx/3.4.4/../../../../pic32mx/lib/size\libc.a(_mon_write.o)
 .debug_pubnames
                0x00003c2d       0x20 C:/Program Files/Microchip/MPLAB C32/bin/../lib/gcc/pic32mx/3.4.4/../../../../pic32mx/lib/size\libc.a(fullexit.o)
 .debug_pubnames
                0x00003c4d       0x20 C:/Program Files/Microchip/MPLAB C32/bin/../lib/gcc/pic32mx/3.4.4/../../../../pic32mx/lib/size\libc.a(_mon_putc.o)
 .debug_pubnames
                0x00003c6d       0x20 C:/Program Files/Microchip/MPLAB C32/bin/../lib/gcc/pic32mx/3.4.4/../../../../pic32mx/lib/size\libmchp_peripheral_32MX795F512L.a(soft_reset_lib.o)
 .debug_pubnames
                0x00003c8d       0x3b C:/Program Files/Microchip/MPLAB C32/bin/../lib/gcc/pic32mx/3.4.4/../../../../pic32mx/lib/size\libmchp_peripheral_32MX795F512L.a(pcache.o)
 .debug_pubnames
                0x00003cc8       0x21 C:/Program Files/Microchip/MPLAB C32/bin/../lib/gcc/pic32mx/3.4.4/../../../../pic32mx/lib/size\libmchp_peripheral_32MX795F512L.a(set_core_sw0_leg_lib.o)
 .debug_pubnames
                0x00003ce9       0x2b C:/Program Files/Microchip/MPLAB C32/bin/../lib/gcc/pic32mx/3.4.4/../../../../pic32mx/lib/size\libmchp_peripheral_32MX795F512L.a(int_disable_interrupts_lib.o)
 .debug_pubnames
                0x00003d14       0x2b C:/Program Files/Microchip/MPLAB C32/bin/../lib/gcc/pic32mx/3.4.4/../../../../pic32mx/lib/size\libmchp_peripheral_32MX795F512L.a(int_restore_interrupts_lib.o)
 .debug_pubnames
                0x00003d3f       0x36 C:/Program Files/Microchip/MPLAB C32/bin/../lib/gcc/pic32mx/3.4.4/../../../../pic32mx/lib/size\libmchp_peripheral_32MX795F512L.a(int_enable_mv_int_lib.o)
 .debug_pubnames
                0x00003d75       0xca C:/Program Files/Microchip/MPLAB C32/bin/../lib/gcc/pic32mx/3.4.4/../../../../pic32mx/lib/size\libmchp_peripheral_32MX795F512L.a(int_tbl_lib.o)
 .debug_pubnames
                0x00003e3f       0x2c C:/Program Files/Microchip/MPLAB C32/bin/../lib/gcc/pic32mx/3.4.4/../../../../pic32mx/lib/size\libmchp_peripheral_32MX795F512L.a(port_set_pins_digital_out_lib.o)
 .debug_pubnames
                0x00003e6b       0x24 C:/Program Files/Microchip/MPLAB C32/bin/../lib/gcc/pic32mx/3.4.4/../../../../pic32mx/lib/size\libmchp_peripheral_32MX795F512L.a(port_clear_bits_lib.o)
 .debug_pubnames
                0x00003e8f       0x22 C:/Program Files/Microchip/MPLAB C32/bin/../lib/gcc/pic32mx/3.4.4/../../../../pic32mx/lib/size\libmchp_peripheral_32MX795F512L.a(port_set_bits_lib.o)
 .debug_pubnames
                0x00003eb1       0xb1 C:/Program Files/Microchip/MPLAB C32/bin/../lib/gcc/pic32mx/3.4.4/../../../../pic32mx/lib/size\libmchp_peripheral_32MX795F512L.a(uart_lib.o)
 .debug_pubnames
                0x00003f62       0x2e C:/Program Files/Microchip/MPLAB C32/bin/../lib/gcc/pic32mx/3.4.4/../../../../pic32mx/lib/size\libmchp_peripheral_32MX795F512L.a(puts_uartx_lib_legacy.o)
 .debug_pubnames
                0x00003f90       0x2a C:/Program Files/Microchip/MPLAB C32/bin/../lib/gcc/pic32mx/3.4.4/../../../../pic32mx/lib/size\libmchp_peripheral_32MX795F512L.a(int_enable_interrupts_lib.o)

.debug_info     0x00000000    0x38555
 *(.debug_info .gnu.linkonce.wi.*)
 .debug_info    0x00000000     0x1532 Objects Files\tasks.o
 .debug_info    0x00001532      0x9bc Objects Files\list.o
 .debug_info    0x00001eee     0x1036 Objects Files\queue.o
 .debug_info    0x00002f24      0xa76 Objects Files\port.o
 .debug_info    0x0000399a      0x849 Objects Files\heap_1.o
 .debug_info    0x000041e3      0x7e2 Objects Files\WF_Config.o
 .debug_info    0x000049c5     0x119f Objects Files\RTOS_init.o
 .debug_info    0x00005b64     0x1572 Objects Files\App_functions.o
 .debug_info    0x000070d6     0x1aad Objects Files\App_HTTP_custom.o
 .debug_info    0x00008b83     0x1995 Objects Files\TCPIP_init.o
 .debug_info    0x0000a518     0x141b Objects Files\App_init.o
 .debug_info    0x0000b933     0x14a2 Objects Files\Main.o
 .debug_info    0x0000cdd5     0x1240 Objects Files\Task_HTTP.o
 .debug_info    0x0000e015     0x13fd Objects Files\Task_control.o
 .debug_info    0x0000f412     0x12a8 Objects Files\Task_Network.o
 .debug_info    0x000106ba      0x968 Objects Files\WF_Eint.o
 .debug_info    0x00011022      0x9bc Objects Files\WF_Spi.o
 .debug_info    0x000119de     0x12c7 Objects Files\WFConnectionAlgorithm.o
 .debug_info    0x00012ca5      0x8c1 Objects Files\WFConnectionManager.o
 .debug_info    0x00013566     0x1020 Objects Files\WFConnectionProfile.o
 .debug_info    0x00014586     0x163c Objects Files\WFConsole.o
 .debug_info    0x00015bc2      0x6f9 Objects Files\WFConsoleIfconfig.o
 .debug_info    0x000162bb      0x6f9 Objects Files\WFConsoleIwconfig.o
 .debug_info    0x000169b4      0x6f7 Objects Files\WFConsoleIwpriv.o
 .debug_info    0x000170ab      0xbba Objects Files\WFConsoleMsgHandler.o
 .debug_info    0x00017c65      0xe70 Objects Files\WFConsoleMsgs.o
 .debug_info    0x00018ad5      0x6f2 Objects Files\WFDataTxRx.o
 .debug_info    0x000191c7      0xdba Objects Files\WFDriverCom.o
 .debug_info    0x00019f81      0xf58 Objects Files\WFDriverRaw.o
 .debug_info    0x0001aed9     0x14d7 Objects Files\WFEasyConfig.o
 .debug_info    0x0001c3b0      0x8b3 Objects Files\WFEventHandler.o
 .debug_info    0x0001cc63      0xf2e Objects Files\WFInit.o
 .debug_info    0x0001db91     0x13dd Objects Files\WFMac.o
 .debug_info    0x0001ef6e      0xab4 Objects Files\WFMgmtMsg.o
 .debug_info    0x0001fa22      0xf05 Objects Files\WFParamMsg.o
 .debug_info    0x00020927      0xab0 Objects Files\WFPowerSave.o
 .debug_info    0x000213d7      0x908 Objects Files\WFScan.o
 .debug_info    0x00021cdf      0xb90 Objects Files\WFTxPower.o
 .debug_info    0x0002286f      0x6ea Objects Files\ARCFOUR.o
 .debug_info    0x00022f59     0x117b Objects Files\ARP.o
 .debug_info    0x000240d4      0x6e9 Objects Files\BigInt.o
 .debug_info    0x000247bd      0x77d Objects Files\Delay.o
 .debug_info    0x00024f3a     0x12c9 Objects Files\DHCPs.o
 .debug_info    0x00026203      0x6e9 Objects Files\Hashes.o
 .debug_info    0x000268ec     0x1438 Objects Files\Helpers.o
 .debug_info    0x00027d24     0x130d Objects Files\HTTP2.o
 .debug_info    0x00029031      0xcdd Objects Files\ICMP.o
 .debug_info    0x00029d0e     0x1209 Objects Files\IP.o
 .debug_info    0x0002af17      0x8d8 Objects Files\LCDBlocking.o
 .debug_info    0x0002b7ef      0xf1f Objects Files\MPFS2.o
 .debug_info    0x0002c70e      0x6e7 Objects Files\NBNS.o
 .debug_info    0x0002cdf5      0x6e9 Objects Files\Random.o
 .debug_info    0x0002d4de      0x6e9 Objects Files\Reboot.o
 .debug_info    0x0002dbc7      0x6e6 Objects Files\RSA.o
 .debug_info    0x0002e2ad      0xd14 Objects Files\SPIEEPROM.o
 .debug_info    0x0002efc1     0x1021 Objects Files\StackTsk.o
 .debug_info    0x0002ffe2     0x27ed Objects Files\TCP.o
 .debug_info    0x000327cf      0x98b Objects Files\Tick.o
 .debug_info    0x0003315a     0x1645 Objects Files\UDP.o
 .debug_info    0x0003479f     0x131e Objects Files\Task_DebugUART.o
 .debug_info    0x00035abd     0x1f7d Objects Files\IperfApp.o
 .debug_info    0x00037a3a       0x30 C:/Program Files/Microchip/MPLAB C32/bin/../lib/gcc/pic32mx/3.4.4/../../../../pic32mx/lib/size\libc.a(strncpy.o)
 .debug_info    0x00037a6a       0x30 C:/Program Files/Microchip/MPLAB C32/bin/../lib/gcc/pic32mx/3.4.4/../../../../pic32mx/lib/size\libc.a(exit.o)
 .debug_info    0x00037a9a        0x0 C:/Program Files/Microchip/MPLAB C32/bin/../lib/gcc/pic32mx/3.4.4/../../../../pic32mx/lib/size\libc.a(ctype.o)
 .debug_info    0x00037a9a      0x150 C:/Program Files/Microchip/MPLAB C32/bin/../lib/gcc/pic32mx/3.4.4/../../../../pic32mx/lib/size\libc.a(ctypef.o)
 .debug_info    0x00037bea       0x30 C:/Program Files/Microchip/MPLAB C32/bin/../lib/gcc/pic32mx/3.4.4/../../../../pic32mx/lib/size\libc.a(atol.o)
 .debug_info    0x00037c1a       0x30 C:/Program Files/Microchip/MPLAB C32/bin/../lib/gcc/pic32mx/3.4.4/../../../../pic32mx/lib/size\libc.a(strtol.o)
 .debug_info    0x00037c4a       0x30 C:/Program Files/Microchip/MPLAB C32/bin/../lib/gcc/pic32mx/3.4.4/../../../../pic32mx/lib/size\libc.a(sprintf.o)
 .debug_info    0x00037c7a       0x30 C:/Program Files/Microchip/MPLAB C32/bin/../lib/gcc/pic32mx/3.4.4/../../../../pic32mx/lib/size\libc.a(__vsnprintf.o)
 .debug_info    0x00037caa       0x30 C:/Program Files/Microchip/MPLAB C32/bin/../lib/gcc/pic32mx/3.4.4/../../../../pic32mx/lib/size\libc.a(default-bootstrap-exception-handler.o)
 .debug_info    0x00037cda       0x30 C:/Program Files/Microchip/MPLAB C32/bin/../lib/gcc/pic32mx/3.4.4/../../../../pic32mx/lib/size\libc.a(default-on-reset.o)
 .debug_info    0x00037d0a       0x30 C:/Program Files/Microchip/MPLAB C32/bin/../lib/gcc/pic32mx/3.4.4/../../../../pic32mx/lib/size\libc.a(default-on-bootstrap.o)
 .debug_info    0x00037d3a       0x30 C:/Program Files/Microchip/MPLAB C32/bin/../lib/gcc/pic32mx/3.4.4/../../../../pic32mx/lib/size\libc.a(_exit.o)
 .debug_info    0x00037d6a        0x0 C:/Program Files/Microchip/MPLAB C32/bin/../lib/gcc/pic32mx/3.4.4/../../../../pic32mx/lib/size\libc.a(errno.o)
 .debug_info    0x00037d6a       0x8a C:/Program Files/Microchip/MPLAB C32/bin/../lib/gcc/pic32mx/3.4.4/../../../../pic32mx/lib/size\libc.a(_doprnt.o)
 .debug_info    0x00037df4        0x0 C:/Program Files/Microchip/MPLAB C32/bin/../lib/gcc/pic32mx/3.4.4/../../../../pic32mx/lib/size\libc.a(_iobdata.o)
 .debug_info    0x00037df4       0x8a C:/Program Files/Microchip/MPLAB C32/bin/../lib/gcc/pic32mx/3.4.4/../../../../pic32mx/lib/size\libc.a(_iobfuncs.o)
 .debug_info    0x00037e7e       0x73 C:/Program Files/Microchip/MPLAB C32/bin/../lib/gcc/pic32mx/3.4.4/../../../../pic32mx/lib/size\libc.a(_iobstring.o)
 .debug_info    0x00037ef1       0x54 C:/Program Files/Microchip/MPLAB C32/bin/../lib/gcc/pic32mx/3.4.4/../../../../pic32mx/lib/size\libc.a(fputc.o)
 .debug_info    0x00037f45      0x1aa C:/Program Files/Microchip/MPLAB C32/bin/../lib/gcc/pic32mx/3.4.4/../../../../pic32mx/lib/size\libc.a(stubs.o)
 .debug_info    0x000380ef       0x30 C:/Program Files/Microchip/MPLAB C32/bin/../lib/gcc/pic32mx/3.4.4/../../../../pic32mx/lib/size\libc.a(_mon_getc.o)
 .debug_info    0x0003811f       0x30 C:/Program Files/Microchip/MPLAB C32/bin/../lib/gcc/pic32mx/3.4.4/../../../../pic32mx/lib/size\libc.a(_mon_write.o)
 .debug_info    0x0003814f       0x30 C:/Program Files/Microchip/MPLAB C32/bin/../lib/gcc/pic32mx/3.4.4/../../../../pic32mx/lib/size\libc.a(fullexit.o)
 .debug_info    0x0003817f       0x30 C:/Program Files/Microchip/MPLAB C32/bin/../lib/gcc/pic32mx/3.4.4/../../../../pic32mx/lib/size\libc.a(_mon_putc.o)
 .debug_info    0x000381af       0x30 C:/Program Files/Microchip/MPLAB C32/bin/../lib/gcc/pic32mx/3.4.4/../../../../pic32mx/lib/size\libmchp_peripheral_32MX795F512L.a(soft_reset_lib.o)
 .debug_info    0x000381df       0x42 C:/Program Files/Microchip/MPLAB C32/bin/../lib/gcc/pic32mx/3.4.4/../../../../pic32mx/lib/size\libmchp_peripheral_32MX795F512L.a(pcache.o)
 .debug_info    0x00038221       0x30 C:/Program Files/Microchip/MPLAB C32/bin/../lib/gcc/pic32mx/3.4.4/../../../../pic32mx/lib/size\libmchp_peripheral_32MX795F512L.a(set_core_sw0_leg_lib.o)
 .debug_info    0x00038251       0x30 C:/Program Files/Microchip/MPLAB C32/bin/../lib/gcc/pic32mx/3.4.4/../../../../pic32mx/lib/size\libmchp_peripheral_32MX795F512L.a(int_disable_interrupts_lib.o)
 .debug_info    0x00038281       0x30 C:/Program Files/Microchip/MPLAB C32/bin/../lib/gcc/pic32mx/3.4.4/../../../../pic32mx/lib/size\libmchp_peripheral_32MX795F512L.a(int_restore_interrupts_lib.o)
 .debug_info    0x000382b1       0x30 C:/Program Files/Microchip/MPLAB C32/bin/../lib/gcc/pic32mx/3.4.4/../../../../pic32mx/lib/size\libmchp_peripheral_32MX795F512L.a(int_enable_mv_int_lib.o)
 .debug_info    0x000382e1       0xc0 C:/Program Files/Microchip/MPLAB C32/bin/../lib/gcc/pic32mx/3.4.4/../../../../pic32mx/lib/size\libmchp_peripheral_32MX795F512L.a(int_tbl_lib.o)
 .debug_info    0x000383a1       0x30 C:/Program Files/Microchip/MPLAB C32/bin/../lib/gcc/pic32mx/3.4.4/../../../../pic32mx/lib/size\libmchp_peripheral_32MX795F512L.a(port_set_pins_digital_out_lib.o)
 .debug_info    0x000383d1       0x30 C:/Program Files/Microchip/MPLAB C32/bin/../lib/gcc/pic32mx/3.4.4/../../../../pic32mx/lib/size\libmchp_peripheral_32MX795F512L.a(port_clear_bits_lib.o)
 .debug_info    0x00038401       0x30 C:/Program Files/Microchip/MPLAB C32/bin/../lib/gcc/pic32mx/3.4.4/../../../../pic32mx/lib/size\libmchp_peripheral_32MX795F512L.a(port_set_bits_lib.o)
 .debug_info    0x00038431        0x0 C:/Program Files/Microchip/MPLAB C32/bin/../lib/gcc/pic32mx/3.4.4/../../../../pic32mx/lib/size\libmchp_peripheral_32MX795F512L.a(_ports_tbl_libp.o)
 .debug_info    0x00038431       0xb2 C:/Program Files/Microchip/MPLAB C32/bin/../lib/gcc/pic32mx/3.4.4/../../../../pic32mx/lib/size\libmchp_peripheral_32MX795F512L.a(uart_lib.o)
 .debug_info    0x000384e3       0x42 C:/Program Files/Microchip/MPLAB C32/bin/../lib/gcc/pic32mx/3.4.4/../../../../pic32mx/lib/size\libmchp_peripheral_32MX795F512L.a(puts_uartx_lib_legacy.o)
 .debug_info    0x00038525       0x30 C:/Program Files/Microchip/MPLAB C32/bin/../lib/gcc/pic32mx/3.4.4/../../../../pic32mx/lib/size\libmchp_peripheral_32MX795F512L.a(int_enable_interrupts_lib.o)

.debug_abbrev   0x00000000     0x70bb
 *(.debug_abbrev)
 .debug_abbrev  0x00000000      0x274 Objects Files\tasks.o
 .debug_abbrev  0x00000274      0x17f Objects Files\list.o
 .debug_abbrev  0x000003f3      0x223 Objects Files\queue.o
 .debug_abbrev  0x00000616      0x1ca Objects Files\port.o
 .debug_abbrev  0x000007e0      0x1ad Objects Files\heap_1.o
 .debug_abbrev  0x0000098d      0x14e Objects Files\WF_Config.o
 .debug_abbrev  0x00000adb      0x18a Objects Files\RTOS_init.o
 .debug_abbrev  0x00000c65      0x23e Objects Files\App_functions.o
 .debug_abbrev  0x00000ea3      0x1f7 Objects Files\App_HTTP_custom.o
 .debug_abbrev  0x0000109a      0x2dd Objects Files\TCPIP_init.o
 .debug_abbrev  0x00001377      0x1bf Objects Files\App_init.o
 .debug_abbrev  0x00001536      0x236 Objects Files\Main.o
 .debug_abbrev  0x0000176c      0x19b Objects Files\Task_HTTP.o
 .debug_abbrev  0x00001907      0x1d5 Objects Files\Task_control.o
 .debug_abbrev  0x00001adc      0x1b3 Objects Files\Task_Network.o
 .debug_abbrev  0x00001c8f      0x14b Objects Files\WF_Eint.o
 .debug_abbrev  0x00001dda      0x19e Objects Files\WF_Spi.o
 .debug_abbrev  0x00001f78      0x200 Objects Files\WFConnectionAlgorithm.o
 .debug_abbrev  0x00002178      0x1a9 Objects Files\WFConnectionManager.o
 .debug_abbrev  0x00002321      0x207 Objects Files\WFConnectionProfile.o
 .debug_abbrev  0x00002528      0x247 Objects Files\WFConsole.o
 .debug_abbrev  0x0000276f      0x107 Objects Files\WFConsoleIfconfig.o
 .debug_abbrev  0x00002876      0x107 Objects Files\WFConsoleIwconfig.o
 .debug_abbrev  0x0000297d      0x107 Objects Files\WFConsoleIwpriv.o
 .debug_abbrev  0x00002a84      0x1f7 Objects Files\WFConsoleMsgHandler.o
 .debug_abbrev  0x00002c7b      0x216 Objects Files\WFConsoleMsgs.o
 .debug_abbrev  0x00002e91      0x107 Objects Files\WFDataTxRx.o
 .debug_abbrev  0x00002f98      0x1fb Objects Files\WFDriverCom.o
 .debug_abbrev  0x00003193      0x22e Objects Files\WFDriverRaw.o
 .debug_abbrev  0x000033c1      0x240 Objects Files\WFEasyConfig.o
 .debug_abbrev  0x00003601      0x1b0 Objects Files\WFEventHandler.o
 .debug_abbrev  0x000037b1      0x187 Objects Files\WFInit.o
 .debug_abbrev  0x00003938      0x259 Objects Files\WFMac.o
 .debug_abbrev  0x00003b91      0x1f4 Objects Files\WFMgmtMsg.o
 .debug_abbrev  0x00003d85      0x1dd Objects Files\WFParamMsg.o
 .debug_abbrev  0x00003f62      0x200 Objects Files\WFPowerSave.o
 .debug_abbrev  0x00004162      0x154 Objects Files\WFScan.o
 .debug_abbrev  0x000042b6      0x1fc Objects Files\WFTxPower.o
 .debug_abbrev  0x000044b2      0x107 Objects Files\ARCFOUR.o
 .debug_abbrev  0x000045b9      0x229 Objects Files\ARP.o
 .debug_abbrev  0x000047e2      0x107 Objects Files\BigInt.o
 .debug_abbrev  0x000048e9      0x13c Objects Files\Delay.o
 .debug_abbrev  0x00004a25      0x1e6 Objects Files\DHCPs.o
 .debug_abbrev  0x00004c0b      0x107 Objects Files\Hashes.o
 .debug_abbrev  0x00004d12      0x1f9 Objects Files\Helpers.o
 .debug_abbrev  0x00004f0b      0x237 Objects Files\HTTP2.o
 .debug_abbrev  0x00005142      0x16e Objects Files\ICMP.o
 .debug_abbrev  0x000052b0      0x205 Objects Files\IP.o
 .debug_abbrev  0x000054b5      0x1a6 Objects Files\LCDBlocking.o
 .debug_abbrev  0x0000565b      0x237 Objects Files\MPFS2.o
 .debug_abbrev  0x00005892      0x107 Objects Files\NBNS.o
 .debug_abbrev  0x00005999      0x107 Objects Files\Random.o
 .debug_abbrev  0x00005aa0      0x107 Objects Files\Reboot.o
 .debug_abbrev  0x00005ba7      0x107 Objects Files\RSA.o
 .debug_abbrev  0x00005cae      0x257 Objects Files\SPIEEPROM.o
 .debug_abbrev  0x00005f05      0x1c5 Objects Files\StackTsk.o
 .debug_abbrev  0x000060ca      0x29b Objects Files\TCP.o
 .debug_abbrev  0x00006365      0x1b5 Objects Files\Tick.o
 .debug_abbrev  0x0000651a      0x281 Objects Files\UDP.o
 .debug_abbrev  0x0000679b      0x1cf Objects Files\Task_DebugUART.o
 .debug_abbrev  0x0000696a      0x284 Objects Files\IperfApp.o
 .debug_abbrev  0x00006bee       0x23 C:/Program Files/Microchip/MPLAB C32/bin/../lib/gcc/pic32mx/3.4.4/../../../../pic32mx/lib/size\libc.a(strncpy.o)
 .debug_abbrev  0x00006c11       0x23 C:/Program Files/Microchip/MPLAB C32/bin/../lib/gcc/pic32mx/3.4.4/../../../../pic32mx/lib/size\libc.a(exit.o)
 .debug_abbrev  0x00006c34        0x1 C:/Program Files/Microchip/MPLAB C32/bin/../lib/gcc/pic32mx/3.4.4/../../../../pic32mx/lib/size\libc.a(ctype.o)
 .debug_abbrev  0x00006c35       0x23 C:/Program Files/Microchip/MPLAB C32/bin/../lib/gcc/pic32mx/3.4.4/../../../../pic32mx/lib/size\libc.a(ctypef.o)
 .debug_abbrev  0x00006c58       0x23 C:/Program Files/Microchip/MPLAB C32/bin/../lib/gcc/pic32mx/3.4.4/../../../../pic32mx/lib/size\libc.a(atol.o)
 .debug_abbrev  0x00006c7b       0x23 C:/Program Files/Microchip/MPLAB C32/bin/../lib/gcc/pic32mx/3.4.4/../../../../pic32mx/lib/size\libc.a(strtol.o)
 .debug_abbrev  0x00006c9e       0x23 C:/Program Files/Microchip/MPLAB C32/bin/../lib/gcc/pic32mx/3.4.4/../../../../pic32mx/lib/size\libc.a(sprintf.o)
 .debug_abbrev  0x00006cc1       0x23 C:/Program Files/Microchip/MPLAB C32/bin/../lib/gcc/pic32mx/3.4.4/../../../../pic32mx/lib/size\libc.a(__vsnprintf.o)
 .debug_abbrev  0x00006ce4       0x23 C:/Program Files/Microchip/MPLAB C32/bin/../lib/gcc/pic32mx/3.4.4/../../../../pic32mx/lib/size\libc.a(default-bootstrap-exception-handler.o)
 .debug_abbrev  0x00006d07       0x23 C:/Program Files/Microchip/MPLAB C32/bin/../lib/gcc/pic32mx/3.4.4/../../../../pic32mx/lib/size\libc.a(default-on-reset.o)
 .debug_abbrev  0x00006d2a       0x23 C:/Program Files/Microchip/MPLAB C32/bin/../lib/gcc/pic32mx/3.4.4/../../../../pic32mx/lib/size\libc.a(default-on-bootstrap.o)
 .debug_abbrev  0x00006d4d       0x23 C:/Program Files/Microchip/MPLAB C32/bin/../lib/gcc/pic32mx/3.4.4/../../../../pic32mx/lib/size\libc.a(_exit.o)
 .debug_abbrev  0x00006d70        0x1 C:/Program Files/Microchip/MPLAB C32/bin/../lib/gcc/pic32mx/3.4.4/../../../../pic32mx/lib/size\libc.a(errno.o)
 .debug_abbrev  0x00006d71       0x58 C:/Program Files/Microchip/MPLAB C32/bin/../lib/gcc/pic32mx/3.4.4/../../../../pic32mx/lib/size\libc.a(_doprnt.o)
 .debug_abbrev  0x00006dc9        0x1 C:/Program Files/Microchip/MPLAB C32/bin/../lib/gcc/pic32mx/3.4.4/../../../../pic32mx/lib/size\libc.a(_iobdata.o)
 .debug_abbrev  0x00006dca       0x23 C:/Program Files/Microchip/MPLAB C32/bin/../lib/gcc/pic32mx/3.4.4/../../../../pic32mx/lib/size\libc.a(_iobfuncs.o)
 .debug_abbrev  0x00006ded       0x21 C:/Program Files/Microchip/MPLAB C32/bin/../lib/gcc/pic32mx/3.4.4/../../../../pic32mx/lib/size\libc.a(_iobstring.o)
 .debug_abbrev  0x00006e0e       0x23 C:/Program Files/Microchip/MPLAB C32/bin/../lib/gcc/pic32mx/3.4.4/../../../../pic32mx/lib/size\libc.a(fputc.o)
 .debug_abbrev  0x00006e31       0x23 C:/Program Files/Microchip/MPLAB C32/bin/../lib/gcc/pic32mx/3.4.4/../../../../pic32mx/lib/size\libc.a(stubs.o)
 .debug_abbrev  0x00006e54       0x23 C:/Program Files/Microchip/MPLAB C32/bin/../lib/gcc/pic32mx/3.4.4/../../../../pic32mx/lib/size\libc.a(_mon_getc.o)
 .debug_abbrev  0x00006e77       0x23 C:/Program Files/Microchip/MPLAB C32/bin/../lib/gcc/pic32mx/3.4.4/../../../../pic32mx/lib/size\libc.a(_mon_write.o)
 .debug_abbrev  0x00006e9a       0x23 C:/Program Files/Microchip/MPLAB C32/bin/../lib/gcc/pic32mx/3.4.4/../../../../pic32mx/lib/size\libc.a(fullexit.o)
 .debug_abbrev  0x00006ebd       0x23 C:/Program Files/Microchip/MPLAB C32/bin/../lib/gcc/pic32mx/3.4.4/../../../../pic32mx/lib/size\libc.a(_mon_putc.o)
 .debug_abbrev  0x00006ee0       0x23 C:/Program Files/Microchip/MPLAB C32/bin/../lib/gcc/pic32mx/3.4.4/../../../../pic32mx/lib/size\libmchp_peripheral_32MX795F512L.a(soft_reset_lib.o)
 .debug_abbrev  0x00006f03       0x23 C:/Program Files/Microchip/MPLAB C32/bin/../lib/gcc/pic32mx/3.4.4/../../../../pic32mx/lib/size\libmchp_peripheral_32MX795F512L.a(pcache.o)
 .debug_abbrev  0x00006f26       0x23 C:/Program Files/Microchip/MPLAB C32/bin/../lib/gcc/pic32mx/3.4.4/../../../../pic32mx/lib/size\libmchp_peripheral_32MX795F512L.a(set_core_sw0_leg_lib.o)
 .debug_abbrev  0x00006f49       0x23 C:/Program Files/Microchip/MPLAB C32/bin/../lib/gcc/pic32mx/3.4.4/../../../../pic32mx/lib/size\libmchp_peripheral_32MX795F512L.a(int_disable_interrupts_lib.o)
 .debug_abbrev  0x00006f6c       0x23 C:/Program Files/Microchip/MPLAB C32/bin/../lib/gcc/pic32mx/3.4.4/../../../../pic32mx/lib/size\libmchp_peripheral_32MX795F512L.a(int_restore_interrupts_lib.o)
 .debug_abbrev  0x00006f8f       0x23 C:/Program Files/Microchip/MPLAB C32/bin/../lib/gcc/pic32mx/3.4.4/../../../../pic32mx/lib/size\libmchp_peripheral_32MX795F512L.a(int_enable_mv_int_lib.o)
 .debug_abbrev  0x00006fb2       0x23 C:/Program Files/Microchip/MPLAB C32/bin/../lib/gcc/pic32mx/3.4.4/../../../../pic32mx/lib/size\libmchp_peripheral_32MX795F512L.a(int_tbl_lib.o)
 .debug_abbrev  0x00006fd5       0x23 C:/Program Files/Microchip/MPLAB C32/bin/../lib/gcc/pic32mx/3.4.4/../../../../pic32mx/lib/size\libmchp_peripheral_32MX795F512L.a(port_set_pins_digital_out_lib.o)
 .debug_abbrev  0x00006ff8       0x23 C:/Program Files/Microchip/MPLAB C32/bin/../lib/gcc/pic32mx/3.4.4/../../../../pic32mx/lib/size\libmchp_peripheral_32MX795F512L.a(port_clear_bits_lib.o)
 .debug_abbrev  0x0000701b       0x23 C:/Program Files/Microchip/MPLAB C32/bin/../lib/gcc/pic32mx/3.4.4/../../../../pic32mx/lib/size\libmchp_peripheral_32MX795F512L.a(port_set_bits_lib.o)
 .debug_abbrev  0x0000703e        0x1 C:/Program Files/Microchip/MPLAB C32/bin/../lib/gcc/pic32mx/3.4.4/../../../../pic32mx/lib/size\libmchp_peripheral_32MX795F512L.a(_ports_tbl_libp.o)
 .debug_abbrev  0x0000703f       0x36 C:/Program Files/Microchip/MPLAB C32/bin/../lib/gcc/pic32mx/3.4.4/../../../../pic32mx/lib/size\libmchp_peripheral_32MX795F512L.a(uart_lib.o)
 .debug_abbrev  0x00007075       0x23 C:/Program Files/Microchip/MPLAB C32/bin/../lib/gcc/pic32mx/3.4.4/../../../../pic32mx/lib/size\libmchp_peripheral_32MX795F512L.a(puts_uartx_lib_legacy.o)
 .debug_abbrev  0x00007098       0x23 C:/Program Files/Microchip/MPLAB C32/bin/../lib/gcc/pic32mx/3.4.4/../../../../pic32mx/lib/size\libmchp_peripheral_32MX795F512L.a(int_enable_interrupts_lib.o)

.debug_line     0x00000000     0xa32d
 *(.debug_line)
 .debug_line    0x00000000      0x356 Objects Files\tasks.o
 .debug_line    0x00000356      0x1e8 Objects Files\list.o
 .debug_line    0x0000053e      0x34e Objects Files\queue.o
 .debug_line    0x0000088c      0x1d3 Objects Files\port.o
 .debug_line    0x00000a5f      0x1f2 Objects Files\heap_1.o
 .debug_line    0x00000c51      0x1a8 Objects Files\WF_Config.o
 .debug_line    0x00000df9      0x1d1 Objects Files\RTOS_init.o
 .debug_line    0x00000fca      0x23b Objects Files\App_functions.o
 .debug_line    0x00001205      0x2a3 Objects Files\App_HTTP_custom.o
 .debug_line    0x000014a8      0x382 Objects Files\TCPIP_init.o
 .debug_line    0x0000182a      0x1e6 Objects Files\App_init.o
 .debug_line    0x00001a10      0x1ff Objects Files\Main.o
 .debug_line    0x00001c0f      0x223 Objects Files\Task_HTTP.o
 .debug_line    0x00001e32      0x211 Objects Files\Task_control.o
 .debug_line    0x00002043      0x20d Objects Files\Task_Network.o
 .debug_line    0x00002250      0x19f Objects Files\WF_Eint.o
 .debug_line    0x000023ef      0x1ba Objects Files\WF_Spi.o
 .debug_line    0x000025a9      0x310 Objects Files\WFConnectionAlgorithm.o
 .debug_line    0x000028b9      0x1a7 Objects Files\WFConnectionManager.o
 .debug_line    0x00002a60      0x292 Objects Files\WFConnectionProfile.o
 .debug_line    0x00002cf2      0x41f Objects Files\WFConsole.o
 .debug_line    0x00003111      0x12f Objects Files\WFConsoleIfconfig.o
 .debug_line    0x00003240      0x12f Objects Files\WFConsoleIwconfig.o
 .debug_line    0x0000336f      0x12f Objects Files\WFConsoleIwpriv.o
 .debug_line    0x0000349e      0x232 Objects Files\WFConsoleMsgHandler.o
 .debug_line    0x000036d0      0x2d9 Objects Files\WFConsoleMsgs.o
 .debug_line    0x000039a9      0x12f Objects Files\WFDataTxRx.o
 .debug_line    0x00003ad8      0x2a1 Objects Files\WFDriverCom.o
 .debug_line    0x00003d79      0x2ba Objects Files\WFDriverRaw.o
 .debug_line    0x00004033      0x249 Objects Files\WFEasyConfig.o
 .debug_line    0x0000427c      0x1f8 Objects Files\WFEventHandler.o
 .debug_line    0x00004474      0x1a9 Objects Files\WFInit.o
 .debug_line    0x0000461d      0x3bc Objects Files\WFMac.o
 .debug_line    0x000049d9      0x200 Objects Files\WFMgmtMsg.o
 .debug_line    0x00004bd9      0x256 Objects Files\WFParamMsg.o
 .debug_line    0x00004e2f      0x1cb Objects Files\WFPowerSave.o
 .debug_line    0x00004ffa      0x1ae Objects Files\WFScan.o
 .debug_line    0x000051a8      0x22d Objects Files\WFTxPower.o
 .debug_line    0x000053d5      0x12f Objects Files\ARCFOUR.o
 .debug_line    0x00005504      0x20f Objects Files\ARP.o
 .debug_line    0x00005713      0x12f Objects Files\BigInt.o
 .debug_line    0x00005842      0x172 Objects Files\Delay.o
 .debug_line    0x000059b4      0x29a Objects Files\DHCPs.o
 .debug_line    0x00005c4e      0x12f Objects Files\Hashes.o
 .debug_line    0x00005d7d      0x357 Objects Files\Helpers.o
 .debug_line    0x000060d4      0x554 Objects Files\HTTP2.o
 .debug_line    0x00006628      0x1a7 Objects Files\ICMP.o
 .debug_line    0x000067cf      0x1ea Objects Files\IP.o
 .debug_line    0x000069b9      0x1ed Objects Files\LCDBlocking.o
 .debug_line    0x00006ba6      0x3a5 Objects Files\MPFS2.o
 .debug_line    0x00006f4b      0x12f Objects Files\NBNS.o
 .debug_line    0x0000707a      0x12f Objects Files\Random.o
 .debug_line    0x000071a9      0x12f Objects Files\Reboot.o
 .debug_line    0x000072d8      0x12f Objects Files\RSA.o
 .debug_line    0x00007407      0x2b3 Objects Files\SPIEEPROM.o
 .debug_line    0x000076ba      0x1dc Objects Files\StackTsk.o
 .debug_line    0x00007896      0xa5e Objects Files\TCP.o
 .debug_line    0x000082f4      0x1af Objects Files\Tick.o
 .debug_line    0x000084a3      0x2cc Objects Files\UDP.o
 .debug_line    0x0000876f      0x1d7 Objects Files\Task_DebugUART.o
 .debug_line    0x00008946      0x5f4 Objects Files\IperfApp.o
 .debug_line    0x00008f3a       0x8d C:/Program Files/Microchip/MPLAB C32/bin/../lib/gcc/pic32mx/3.4.4/../../../../pic32mx/lib/size\libc.a(strncpy.o)
 .debug_line    0x00008fc7       0x8a C:/Program Files/Microchip/MPLAB C32/bin/../lib/gcc/pic32mx/3.4.4/../../../../pic32mx/lib/size\libc.a(exit.o)
 .debug_line    0x00009051        0x0 C:/Program Files/Microchip/MPLAB C32/bin/../lib/gcc/pic32mx/3.4.4/../../../../pic32mx/lib/size\libc.a(ctype.o)
 .debug_line    0x00009051       0x8c C:/Program Files/Microchip/MPLAB C32/bin/../lib/gcc/pic32mx/3.4.4/../../../../pic32mx/lib/size\libc.a(ctypef.o)
 .debug_line    0x000090dd       0x8a C:/Program Files/Microchip/MPLAB C32/bin/../lib/gcc/pic32mx/3.4.4/../../../../pic32mx/lib/size\libc.a(atol.o)
 .debug_line    0x00009167       0x8c C:/Program Files/Microchip/MPLAB C32/bin/../lib/gcc/pic32mx/3.4.4/../../../../pic32mx/lib/size\libc.a(strtol.o)
 .debug_line    0x000091f3       0x8f C:/Program Files/Microchip/MPLAB C32/bin/../lib/gcc/pic32mx/3.4.4/../../../../pic32mx/lib/size\libc.a(sprintf.o)
 .debug_line    0x00009282       0x93 C:/Program Files/Microchip/MPLAB C32/bin/../lib/gcc/pic32mx/3.4.4/../../../../pic32mx/lib/size\libc.a(__vsnprintf.o)
 .debug_line    0x00009315       0xab C:/Program Files/Microchip/MPLAB C32/bin/../lib/gcc/pic32mx/3.4.4/../../../../pic32mx/lib/size\libc.a(default-bootstrap-exception-handler.o)
 .debug_line    0x000093c0       0x98 C:/Program Files/Microchip/MPLAB C32/bin/../lib/gcc/pic32mx/3.4.4/../../../../pic32mx/lib/size\libc.a(default-on-reset.o)
 .debug_line    0x00009458       0x9c C:/Program Files/Microchip/MPLAB C32/bin/../lib/gcc/pic32mx/3.4.4/../../../../pic32mx/lib/size\libc.a(default-on-bootstrap.o)
 .debug_line    0x000094f4       0x8d C:/Program Files/Microchip/MPLAB C32/bin/../lib/gcc/pic32mx/3.4.4/../../../../pic32mx/lib/size\libc.a(_exit.o)
 .debug_line    0x00009581        0x0 C:/Program Files/Microchip/MPLAB C32/bin/../lib/gcc/pic32mx/3.4.4/../../../../pic32mx/lib/size\libc.a(errno.o)
 .debug_line    0x00009581       0x8f C:/Program Files/Microchip/MPLAB C32/bin/../lib/gcc/pic32mx/3.4.4/../../../../pic32mx/lib/size\libc.a(_doprnt.o)
 .debug_line    0x00009610        0x0 C:/Program Files/Microchip/MPLAB C32/bin/../lib/gcc/pic32mx/3.4.4/../../../../pic32mx/lib/size\libc.a(_iobdata.o)
 .debug_line    0x00009610       0x91 C:/Program Files/Microchip/MPLAB C32/bin/../lib/gcc/pic32mx/3.4.4/../../../../pic32mx/lib/size\libc.a(_iobfuncs.o)
 .debug_line    0x000096a1       0x92 C:/Program Files/Microchip/MPLAB C32/bin/../lib/gcc/pic32mx/3.4.4/../../../../pic32mx/lib/size\libc.a(_iobstring.o)
 .debug_line    0x00009733       0x8d C:/Program Files/Microchip/MPLAB C32/bin/../lib/gcc/pic32mx/3.4.4/../../../../pic32mx/lib/size\libc.a(fputc.o)
 .debug_line    0x000097c0       0x8d C:/Program Files/Microchip/MPLAB C32/bin/../lib/gcc/pic32mx/3.4.4/../../../../pic32mx/lib/size\libc.a(stubs.o)
 .debug_line    0x0000984d       0x91 C:/Program Files/Microchip/MPLAB C32/bin/../lib/gcc/pic32mx/3.4.4/../../../../pic32mx/lib/size\libc.a(_mon_getc.o)
 .debug_line    0x000098de       0x92 C:/Program Files/Microchip/MPLAB C32/bin/../lib/gcc/pic32mx/3.4.4/../../../../pic32mx/lib/size\libc.a(_mon_write.o)
 .debug_line    0x00009970       0x8e C:/Program Files/Microchip/MPLAB C32/bin/../lib/gcc/pic32mx/3.4.4/../../../../pic32mx/lib/size\libc.a(fullexit.o)
 .debug_line    0x000099fe       0x91 C:/Program Files/Microchip/MPLAB C32/bin/../lib/gcc/pic32mx/3.4.4/../../../../pic32mx/lib/size\libc.a(_mon_putc.o)
 .debug_line    0x00009a8f       0xa6 C:/Program Files/Microchip/MPLAB C32/bin/../lib/gcc/pic32mx/3.4.4/../../../../pic32mx/lib/size\libmchp_peripheral_32MX795F512L.a(soft_reset_lib.o)
 .debug_line    0x00009b35       0x9f C:/Program Files/Microchip/MPLAB C32/bin/../lib/gcc/pic32mx/3.4.4/../../../../pic32mx/lib/size\libmchp_peripheral_32MX795F512L.a(pcache.o)
 .debug_line    0x00009bd4       0xaa C:/Program Files/Microchip/MPLAB C32/bin/../lib/gcc/pic32mx/3.4.4/../../../../pic32mx/lib/size\libmchp_peripheral_32MX795F512L.a(set_core_sw0_leg_lib.o)
 .debug_line    0x00009c7e       0xb0 C:/Program Files/Microchip/MPLAB C32/bin/../lib/gcc/pic32mx/3.4.4/../../../../pic32mx/lib/size\libmchp_peripheral_32MX795F512L.a(int_disable_interrupts_lib.o)
 .debug_line    0x00009d2e       0xb0 C:/Program Files/Microchip/MPLAB C32/bin/../lib/gcc/pic32mx/3.4.4/../../../../pic32mx/lib/size\libmchp_peripheral_32MX795F512L.a(int_restore_interrupts_lib.o)
 .debug_line    0x00009dde       0xab C:/Program Files/Microchip/MPLAB C32/bin/../lib/gcc/pic32mx/3.4.4/../../../../pic32mx/lib/size\libmchp_peripheral_32MX795F512L.a(int_enable_mv_int_lib.o)
 .debug_line    0x00009e89       0xa1 C:/Program Files/Microchip/MPLAB C32/bin/../lib/gcc/pic32mx/3.4.4/../../../../pic32mx/lib/size\libmchp_peripheral_32MX795F512L.a(int_tbl_lib.o)
 .debug_line    0x00009f2a       0xb5 C:/Program Files/Microchip/MPLAB C32/bin/../lib/gcc/pic32mx/3.4.4/../../../../pic32mx/lib/size\libmchp_peripheral_32MX795F512L.a(port_set_pins_digital_out_lib.o)
 .debug_line    0x00009fdf       0xab C:/Program Files/Microchip/MPLAB C32/bin/../lib/gcc/pic32mx/3.4.4/../../../../pic32mx/lib/size\libmchp_peripheral_32MX795F512L.a(port_clear_bits_lib.o)
 .debug_line    0x0000a08a       0xa9 C:/Program Files/Microchip/MPLAB C32/bin/../lib/gcc/pic32mx/3.4.4/../../../../pic32mx/lib/size\libmchp_peripheral_32MX795F512L.a(port_set_bits_lib.o)
 .debug_line    0x0000a133        0x0 C:/Program Files/Microchip/MPLAB C32/bin/../lib/gcc/pic32mx/3.4.4/../../../../pic32mx/lib/size\libmchp_peripheral_32MX795F512L.a(_ports_tbl_libp.o)
 .debug_line    0x0000a133       0x9f C:/Program Files/Microchip/MPLAB C32/bin/../lib/gcc/pic32mx/3.4.4/../../../../pic32mx/lib/size\libmchp_peripheral_32MX795F512L.a(uart_lib.o)
 .debug_line    0x0000a1d2       0xac C:/Program Files/Microchip/MPLAB C32/bin/../lib/gcc/pic32mx/3.4.4/../../../../pic32mx/lib/size\libmchp_peripheral_32MX795F512L.a(puts_uartx_lib_legacy.o)
 .debug_line    0x0000a27e       0xaf C:/Program Files/Microchip/MPLAB C32/bin/../lib/gcc/pic32mx/3.4.4/../../../../pic32mx/lib/size\libmchp_peripheral_32MX795F512L.a(int_enable_interrupts_lib.o)

.debug_frame    0x00000000     0x4a80
 *(.debug_frame)
 .debug_frame   0x00000000      0x2d4 Objects Files\tasks.o
 .debug_frame   0x000002d4       0x9c Objects Files\list.o
 .debug_frame   0x00000370      0x1e4 Objects Files\queue.o
 .debug_frame   0x00000554       0xdc Objects Files\port.o
 .debug_frame   0x00000630       0x84 Objects Files\heap_1.o
 .debug_frame   0x000006b4       0x50 Objects Files\WF_Config.o
 .debug_frame   0x00000704       0x30 Objects Files\RTOS_init.o
 .debug_frame   0x00000734       0xec Objects Files\App_functions.o
 .debug_frame   0x00000820      0x190 Objects Files\App_HTTP_custom.o
 .debug_frame   0x000009b0       0xd0 Objects Files\TCPIP_init.o
 .debug_frame   0x00000a80       0x50 Objects Files\App_init.o
 .debug_frame   0x00000ad0       0xb0 Objects Files\Main.o
 .debug_frame   0x00000b80       0x30 Objects Files\Task_HTTP.o
 .debug_frame   0x00000bb0       0x30 Objects Files\Task_control.o
 .debug_frame   0x00000be0       0x30 Objects Files\Task_Network.o
 .debug_frame   0x00000c10       0xd4 Objects Files\WF_Eint.o
 .debug_frame   0x00000ce4       0xa4 Objects Files\WF_Spi.o
 .debug_frame   0x00000d88      0x448 Objects Files\WFConnectionAlgorithm.o
 .debug_frame   0x000011d0       0xa8 Objects Files\WFConnectionManager.o
 .debug_frame   0x00001278      0x270 Objects Files\WFConnectionProfile.o
 .debug_frame   0x000014e8      0x3d0 Objects Files\WFConsole.o
 .debug_frame   0x000018b8       0xb0 Objects Files\WFConsoleMsgHandler.o
 .debug_frame   0x00001968       0xec Objects Files\WFConsoleMsgs.o
 .debug_frame   0x00001a54      0x1d0 Objects Files\WFDriverCom.o
 .debug_frame   0x00001c24      0x2b0 Objects Files\WFDriverRaw.o
 .debug_frame   0x00001ed4      0x108 Objects Files\WFEasyConfig.o
 .debug_frame   0x00001fdc       0x6c Objects Files\WFEventHandler.o
 .debug_frame   0x00002048       0x50 Objects Files\WFInit.o
 .debug_frame   0x00002098      0x3d0 Objects Files\WFMac.o
 .debug_frame   0x00002468       0xa8 Objects Files\WFMgmtMsg.o
 .debug_frame   0x00002510      0x210 Objects Files\WFParamMsg.o
 .debug_frame   0x00002720      0x140 Objects Files\WFPowerSave.o
 .debug_frame   0x00002860       0x50 Objects Files\WFScan.o
 .debug_frame   0x000028b0      0x14c Objects Files\WFTxPower.o
 .debug_frame   0x000029fc       0xc8 Objects Files\ARP.o
 .debug_frame   0x00002ac4       0x4c Objects Files\Delay.o
 .debug_frame   0x00002b10       0x70 Objects Files\DHCPs.o
 .debug_frame   0x00002b80      0x1fc Objects Files\Helpers.o
 .debug_frame   0x00002d7c      0x21c Objects Files\HTTP2.o
 .debug_frame   0x00002f98       0x30 Objects Files\ICMP.o
 .debug_frame   0x00002fc8       0x90 Objects Files\IP.o
 .debug_frame   0x00003058       0x8c Objects Files\LCDBlocking.o
 .debug_frame   0x000030e4      0x2e4 Objects Files\MPFS2.o
 .debug_frame   0x000033c8      0x158 Objects Files\SPIEEPROM.o
 .debug_frame   0x00003520       0x70 Objects Files\StackTsk.o
 .debug_frame   0x00003590      0x420 Objects Files\TCP.o
 .debug_frame   0x000039b0       0xe0 Objects Files\Tick.o
 .debug_frame   0x00003a90      0x228 Objects Files\UDP.o
 .debug_frame   0x00003cb8       0x38 Objects Files\Task_DebugUART.o
 .debug_frame   0x00003cf0      0x3dc Objects Files\IperfApp.o
 .debug_frame   0x000040cc       0x20 C:/Program Files/Microchip/MPLAB C32/bin/../lib/gcc/pic32mx/3.4.4/../../../../pic32mx/lib/size\libc.a(strncpy.o)
 .debug_frame   0x000040ec       0x28 C:/Program Files/Microchip/MPLAB C32/bin/../lib/gcc/pic32mx/3.4.4/../../../../pic32mx/lib/size\libc.a(exit.o)
 .debug_frame   0x00004114      0x120 C:/Program Files/Microchip/MPLAB C32/bin/../lib/gcc/pic32mx/3.4.4/../../../../pic32mx/lib/size\libc.a(ctypef.o)
 .debug_frame   0x00004234       0x20 C:/Program Files/Microchip/MPLAB C32/bin/../lib/gcc/pic32mx/3.4.4/../../../../pic32mx/lib/size\libc.a(atol.o)
 .debug_frame   0x00004254       0x20 C:/Program Files/Microchip/MPLAB C32/bin/../lib/gcc/pic32mx/3.4.4/../../../../pic32mx/lib/size\libc.a(strtol.o)
 .debug_frame   0x00004274       0x28 C:/Program Files/Microchip/MPLAB C32/bin/../lib/gcc/pic32mx/3.4.4/../../../../pic32mx/lib/size\libc.a(sprintf.o)
 .debug_frame   0x0000429c       0x28 C:/Program Files/Microchip/MPLAB C32/bin/../lib/gcc/pic32mx/3.4.4/../../../../pic32mx/lib/size\libc.a(__vsnprintf.o)
 .debug_frame   0x000042c4       0x20 C:/Program Files/Microchip/MPLAB C32/bin/../lib/gcc/pic32mx/3.4.4/../../../../pic32mx/lib/size\libc.a(default-bootstrap-exception-handler.o)
 .debug_frame   0x000042e4       0x20 C:/Program Files/Microchip/MPLAB C32/bin/../lib/gcc/pic32mx/3.4.4/../../../../pic32mx/lib/size\libc.a(default-on-reset.o)
 .debug_frame   0x00004304       0x20 C:/Program Files/Microchip/MPLAB C32/bin/../lib/gcc/pic32mx/3.4.4/../../../../pic32mx/lib/size\libc.a(default-on-bootstrap.o)
 .debug_frame   0x00004324       0x20 C:/Program Files/Microchip/MPLAB C32/bin/../lib/gcc/pic32mx/3.4.4/../../../../pic32mx/lib/size\libc.a(_exit.o)
 .debug_frame   0x00004344      0x104 C:/Program Files/Microchip/MPLAB C32/bin/../lib/gcc/pic32mx/3.4.4/../../../../pic32mx/lib/size\libc.a(_doprnt.o)
 .debug_frame   0x00004448       0xac C:/Program Files/Microchip/MPLAB C32/bin/../lib/gcc/pic32mx/3.4.4/../../../../pic32mx/lib/size\libc.a(_iobfuncs.o)
 .debug_frame   0x000044f4       0x60 C:/Program Files/Microchip/MPLAB C32/bin/../lib/gcc/pic32mx/3.4.4/../../../../pic32mx/lib/size\libc.a(_iobstring.o)
 .debug_frame   0x00004554       0x50 C:/Program Files/Microchip/MPLAB C32/bin/../lib/gcc/pic32mx/3.4.4/../../../../pic32mx/lib/size\libc.a(fputc.o)
 .debug_frame   0x000045a4      0x178 C:/Program Files/Microchip/MPLAB C32/bin/../lib/gcc/pic32mx/3.4.4/../../../../pic32mx/lib/size\libc.a(stubs.o)
 .debug_frame   0x0000471c       0x20 C:/Program Files/Microchip/MPLAB C32/bin/../lib/gcc/pic32mx/3.4.4/../../../../pic32mx/lib/size\libc.a(_mon_getc.o)
 .debug_frame   0x0000473c       0x30 C:/Program Files/Microchip/MPLAB C32/bin/../lib/gcc/pic32mx/3.4.4/../../../../pic32mx/lib/size\libc.a(_mon_write.o)
 .debug_frame   0x0000476c       0x34 C:/Program Files/Microchip/MPLAB C32/bin/../lib/gcc/pic32mx/3.4.4/../../../../pic32mx/lib/size\libc.a(fullexit.o)
 .debug_frame   0x000047a0       0x20 C:/Program Files/Microchip/MPLAB C32/bin/../lib/gcc/pic32mx/3.4.4/../../../../pic32mx/lib/size\libc.a(_mon_putc.o)
 .debug_frame   0x000047c0       0x28 C:/Program Files/Microchip/MPLAB C32/bin/../lib/gcc/pic32mx/3.4.4/../../../../pic32mx/lib/size\libmchp_peripheral_32MX795F512L.a(soft_reset_lib.o)
 .debug_frame   0x000047e8       0x30 C:/Program Files/Microchip/MPLAB C32/bin/../lib/gcc/pic32mx/3.4.4/../../../../pic32mx/lib/size\libmchp_peripheral_32MX795F512L.a(pcache.o)
 .debug_frame   0x00004818       0x20 C:/Program Files/Microchip/MPLAB C32/bin/../lib/gcc/pic32mx/3.4.4/../../../../pic32mx/lib/size\libmchp_peripheral_32MX795F512L.a(set_core_sw0_leg_lib.o)
 .debug_frame   0x00004838       0x20 C:/Program Files/Microchip/MPLAB C32/bin/../lib/gcc/pic32mx/3.4.4/../../../../pic32mx/lib/size\libmchp_peripheral_32MX795F512L.a(int_disable_interrupts_lib.o)
 .debug_frame   0x00004858       0x20 C:/Program Files/Microchip/MPLAB C32/bin/../lib/gcc/pic32mx/3.4.4/../../../../pic32mx/lib/size\libmchp_peripheral_32MX795F512L.a(int_restore_interrupts_lib.o)
 .debug_frame   0x00004878       0x28 C:/Program Files/Microchip/MPLAB C32/bin/../lib/gcc/pic32mx/3.4.4/../../../../pic32mx/lib/size\libmchp_peripheral_32MX795F512L.a(int_enable_mv_int_lib.o)
 .debug_frame   0x000048a0       0xa0 C:/Program Files/Microchip/MPLAB C32/bin/../lib/gcc/pic32mx/3.4.4/../../../../pic32mx/lib/size\libmchp_peripheral_32MX795F512L.a(int_tbl_lib.o)
 .debug_frame   0x00004940       0x20 C:/Program Files/Microchip/MPLAB C32/bin/../lib/gcc/pic32mx/3.4.4/../../../../pic32mx/lib/size\libmchp_peripheral_32MX795F512L.a(port_set_pins_digital_out_lib.o)
 .debug_frame   0x00004960       0x20 C:/Program Files/Microchip/MPLAB C32/bin/../lib/gcc/pic32mx/3.4.4/../../../../pic32mx/lib/size\libmchp_peripheral_32MX795F512L.a(port_clear_bits_lib.o)
 .debug_frame   0x00004980       0x20 C:/Program Files/Microchip/MPLAB C32/bin/../lib/gcc/pic32mx/3.4.4/../../../../pic32mx/lib/size\libmchp_peripheral_32MX795F512L.a(port_set_bits_lib.o)
 .debug_frame   0x000049a0       0x90 C:/Program Files/Microchip/MPLAB C32/bin/../lib/gcc/pic32mx/3.4.4/../../../../pic32mx/lib/size\libmchp_peripheral_32MX795F512L.a(uart_lib.o)
 .debug_frame   0x00004a30       0x30 C:/Program Files/Microchip/MPLAB C32/bin/../lib/gcc/pic32mx/3.4.4/../../../../pic32mx/lib/size\libmchp_peripheral_32MX795F512L.a(puts_uartx_lib_legacy.o)
 .debug_frame   0x00004a60       0x20 C:/Program Files/Microchip/MPLAB C32/bin/../lib/gcc/pic32mx/3.4.4/../../../../pic32mx/lib/size\libmchp_peripheral_32MX795F512L.a(int_enable_interrupts_lib.o)

.debug_str      0x00000000     0x2119
 *(.debug_str)
 .debug_str     0x00000000       0xdc Objects Files\tasks.o
 .debug_str     0x000000dc       0x3d Objects Files\list.o
 .debug_str     0x00000119       0xb5 Objects Files\queue.o
 .debug_str     0x000001ce       0x28 Objects Files\port.o
 .debug_str     0x000001f6       0x12 Objects Files\heap_1.o
 .debug_str     0x00000208       0x12 Objects Files\WF_Config.o
 .debug_str     0x0000021a       0x12 Objects Files\RTOS_init.o
 .debug_str     0x0000022c       0x1b Objects Files\App_functions.o
 .debug_str     0x00000247       0x2c Objects Files\App_HTTP_custom.o
 .debug_str     0x00000273       0x44 Objects Files\TCPIP_init.o
 .debug_str     0x000002b7       0x1c Objects Files\App_init.o
 .debug_str     0x000002d3       0x21 Objects Files\Main.o
 .debug_str     0x000002f4       0x12 Objects Files\Task_HTTP.o
 .debug_str     0x00000306       0x3f Objects Files\Task_control.o
 .debug_str     0x00000345       0x12 Objects Files\Task_Network.o
 .debug_str     0x00000357       0x12 Objects Files\WF_Eint.o
 .debug_str     0x00000369       0x12 Objects Files\WF_Spi.o
 .debug_str     0x0000037b       0xf6 Objects Files\WFConnectionAlgorithm.o
 .debug_str     0x00000471       0x19 Objects Files\WFConnectionManager.o
 .debug_str     0x0000048a       0xad Objects Files\WFConnectionProfile.o
 .debug_str     0x00000537       0x42 Objects Files\WFConsole.o
 .debug_str     0x00000579       0x12 Objects Files\WFConsoleIfconfig.o
 .debug_str     0x0000058b       0x12 Objects Files\WFConsoleIwconfig.o
 .debug_str     0x0000059d       0x12 Objects Files\WFConsoleIwpriv.o
 .debug_str     0x000005af       0x1d Objects Files\WFConsoleMsgHandler.o
 .debug_str     0x000005cc       0x2e Objects Files\WFConsoleMsgs.o
 .debug_str     0x000005fa       0x12 Objects Files\WFDataTxRx.o
 .debug_str     0x0000060c       0x18 Objects Files\WFDriverCom.o
 .debug_str     0x00000624       0x6e Objects Files\WFDriverRaw.o
 .debug_str     0x00000692       0x12 Objects Files\WFEasyConfig.o
 .debug_str     0x000006a4       0x1d Objects Files\WFEventHandler.o
 .debug_str     0x000006c1       0x12 Objects Files\WFInit.o
 .debug_str     0x000006d3       0x1c Objects Files\WFMac.o
 .debug_str     0x000006ef       0x22 Objects Files\WFMgmtMsg.o
 .debug_str     0x00000711       0x5b Objects Files\WFParamMsg.o
 .debug_str     0x0000076c       0x1d Objects Files\WFPowerSave.o
 .debug_str     0x00000789       0x12 Objects Files\WFScan.o
 .debug_str     0x0000079b       0x21 Objects Files\WFTxPower.o
 .debug_str     0x000007bc       0x12 Objects Files\ARCFOUR.o
 .debug_str     0x000007ce       0x20 Objects Files\ARP.o
 .debug_str     0x000007ee       0x12 Objects Files\BigInt.o
 .debug_str     0x00000800       0x12 Objects Files\Delay.o
 .debug_str     0x00000812       0x12 Objects Files\DHCPs.o
 .debug_str     0x00000824       0x12 Objects Files\Hashes.o
 .debug_str     0x00000836       0x12 Objects Files\Helpers.o
 .debug_str     0x00000848       0x2a Objects Files\HTTP2.o
 .debug_str     0x00000872       0x12 Objects Files\ICMP.o
 .debug_str     0x00000884       0x1b Objects Files\IP.o
 .debug_str     0x0000089f       0x12 Objects Files\LCDBlocking.o
 .debug_str     0x000008b1       0x18 Objects Files\MPFS2.o
 .debug_str     0x000008c9       0x12 Objects Files\NBNS.o
 .debug_str     0x000008db       0x12 Objects Files\Random.o
 .debug_str     0x000008ed       0x12 Objects Files\Reboot.o
 .debug_str     0x000008ff       0x12 Objects Files\RSA.o
 .debug_str     0x00000911       0x31 Objects Files\SPIEEPROM.o
 .debug_str     0x00000942       0x12 Objects Files\StackTsk.o
 .debug_str     0x00000954       0xbe Objects Files\TCP.o
 .debug_str     0x00000a12       0x12 Objects Files\Tick.o
 .debug_str     0x00000a24       0x3b Objects Files\UDP.o
 .debug_str     0x00000a5f       0x24 Objects Files\Task_DebugUART.o
 .debug_str     0x00000a83       0x4d Objects Files\IperfApp.o
 .debug_str     0x00000ad0       0xbc C:/Program Files/Microchip/MPLAB C32/bin/../lib/gcc/pic32mx/3.4.4/../../../../pic32mx/lib/size\libc.a(strncpy.o)
 .debug_str     0x00000b8c       0x6a C:/Program Files/Microchip/MPLAB C32/bin/../lib/gcc/pic32mx/3.4.4/../../../../pic32mx/lib/size\libc.a(exit.o)
                                 0xb6 (size before relaxing)
 .debug_str     0x00000bf6       0xe7 C:/Program Files/Microchip/MPLAB C32/bin/../lib/gcc/pic32mx/3.4.4/../../../../pic32mx/lib/size\libc.a(ctypef.o)
                                0x13e (size before relaxing)
 .debug_str     0x00000cdd       0x6f C:/Program Files/Microchip/MPLAB C32/bin/../lib/gcc/pic32mx/3.4.4/../../../../pic32mx/lib/size\libc.a(atol.o)
                                 0xb6 (size before relaxing)
 .debug_str     0x00000d4c       0x73 C:/Program Files/Microchip/MPLAB C32/bin/../lib/gcc/pic32mx/3.4.4/../../../../pic32mx/lib/size\libc.a(strtol.o)
                                 0xba (size before relaxing)
 .debug_str     0x00000dbf       0x77 C:/Program Files/Microchip/MPLAB C32/bin/../lib/gcc/pic32mx/3.4.4/../../../../pic32mx/lib/size\libc.a(sprintf.o)
                                 0xbe (size before relaxing)
 .debug_str     0x00000e36       0x7f C:/Program Files/Microchip/MPLAB C32/bin/../lib/gcc/pic32mx/3.4.4/../../../../pic32mx/lib/size\libc.a(__vsnprintf.o)
                                 0xc6 (size before relaxing)
 .debug_str     0x00000eb5       0xa8 C:/Program Files/Microchip/MPLAB C32/bin/../lib/gcc/pic32mx/3.4.4/../../../../pic32mx/lib/size\libc.a(default-bootstrap-exception-handler.o)
                                 0xef (size before relaxing)
 .debug_str     0x00000f5d       0x82 C:/Program Files/Microchip/MPLAB C32/bin/../lib/gcc/pic32mx/3.4.4/../../../../pic32mx/lib/size\libc.a(default-on-reset.o)
                                 0xc9 (size before relaxing)
 .debug_str     0x00000fdf       0x8a C:/Program Files/Microchip/MPLAB C32/bin/../lib/gcc/pic32mx/3.4.4/../../../../pic32mx/lib/size\libc.a(default-on-bootstrap.o)
                                 0xd1 (size before relaxing)
 .debug_str     0x00001069       0x6d C:/Program Files/Microchip/MPLAB C32/bin/../lib/gcc/pic32mx/3.4.4/../../../../pic32mx/lib/size\libc.a(_exit.o)
                                 0xba (size before relaxing)
 .debug_str     0x000010d6       0xa0 C:/Program Files/Microchip/MPLAB C32/bin/../lib/gcc/pic32mx/3.4.4/../../../../pic32mx/lib/size\libc.a(_doprnt.o)
                                 0xe7 (size before relaxing)
 .debug_str     0x00001176       0xbb C:/Program Files/Microchip/MPLAB C32/bin/../lib/gcc/pic32mx/3.4.4/../../../../pic32mx/lib/size\libc.a(_iobfuncs.o)
                                0x10b (size before relaxing)
 .debug_str     0x00001231       0xbc C:/Program Files/Microchip/MPLAB C32/bin/../lib/gcc/pic32mx/3.4.4/../../../../pic32mx/lib/size\libc.a(_iobstring.o)
                                0x103 (size before relaxing)
 .debug_str     0x000012ed       0x7b C:/Program Files/Microchip/MPLAB C32/bin/../lib/gcc/pic32mx/3.4.4/../../../../pic32mx/lib/size\libc.a(fputc.o)
                                 0xc7 (size before relaxing)
 .debug_str     0x00001368      0x2dd C:/Program Files/Microchip/MPLAB C32/bin/../lib/gcc/pic32mx/3.4.4/../../../../pic32mx/lib/size\libc.a(stubs.o)
                                0x324 (size before relaxing)
 .debug_str     0x00001645       0x7b C:/Program Files/Microchip/MPLAB C32/bin/../lib/gcc/pic32mx/3.4.4/../../../../pic32mx/lib/size\libc.a(_mon_getc.o)
                                 0xc2 (size before relaxing)
 .debug_str     0x000016c0       0x7d C:/Program Files/Microchip/MPLAB C32/bin/../lib/gcc/pic32mx/3.4.4/../../../../pic32mx/lib/size\libc.a(_mon_write.o)
                                 0xc4 (size before relaxing)
 .debug_str     0x0000173d       0x78 C:/Program Files/Microchip/MPLAB C32/bin/../lib/gcc/pic32mx/3.4.4/../../../../pic32mx/lib/size\libc.a(fullexit.o)
                                 0xbf (size before relaxing)
 .debug_str     0x000017b5       0x7b C:/Program Files/Microchip/MPLAB C32/bin/../lib/gcc/pic32mx/3.4.4/../../../../pic32mx/lib/size\libc.a(_mon_putc.o)
                                 0xc2 (size before relaxing)
 .debug_str     0x00001830       0x90 C:/Program Files/Microchip/MPLAB C32/bin/../lib/gcc/pic32mx/3.4.4/../../../../pic32mx/lib/size\libmchp_peripheral_32MX795F512L.a(soft_reset_lib.o)
                                 0xd7 (size before relaxing)
 .debug_str     0x000018c0       0xa0 C:/Program Files/Microchip/MPLAB C32/bin/../lib/gcc/pic32mx/3.4.4/../../../../pic32mx/lib/size\libmchp_peripheral_32MX795F512L.a(pcache.o)
                                 0xe7 (size before relaxing)
 .debug_str     0x00001960       0x95 C:/Program Files/Microchip/MPLAB C32/bin/../lib/gcc/pic32mx/3.4.4/../../../../pic32mx/lib/size\libmchp_peripheral_32MX795F512L.a(set_core_sw0_leg_lib.o)
                                 0xdc (size before relaxing)
 .debug_str     0x000019f5       0xa5 C:/Program Files/Microchip/MPLAB C32/bin/../lib/gcc/pic32mx/3.4.4/../../../../pic32mx/lib/size\libmchp_peripheral_32MX795F512L.a(int_disable_interrupts_lib.o)
                                 0xec (size before relaxing)
 .debug_str     0x00001a9a       0xa5 C:/Program Files/Microchip/MPLAB C32/bin/../lib/gcc/pic32mx/3.4.4/../../../../pic32mx/lib/size\libmchp_peripheral_32MX795F512L.a(int_restore_interrupts_lib.o)
                                 0xec (size before relaxing)
 .debug_str     0x00001b3f       0xab C:/Program Files/Microchip/MPLAB C32/bin/../lib/gcc/pic32mx/3.4.4/../../../../pic32mx/lib/size\libmchp_peripheral_32MX795F512L.a(int_enable_mv_int_lib.o)
                                 0xf2 (size before relaxing)
 .debug_str     0x00001bea      0x115 C:/Program Files/Microchip/MPLAB C32/bin/../lib/gcc/pic32mx/3.4.4/../../../../pic32mx/lib/size\libmchp_peripheral_32MX795F512L.a(int_tbl_lib.o)
                                0x15c (size before relaxing)
 .debug_str     0x00001cff       0xab C:/Program Files/Microchip/MPLAB C32/bin/../lib/gcc/pic32mx/3.4.4/../../../../pic32mx/lib/size\libmchp_peripheral_32MX795F512L.a(port_set_pins_digital_out_lib.o)
                                 0xf2 (size before relaxing)
 .debug_str     0x00001daa       0x99 C:/Program Files/Microchip/MPLAB C32/bin/../lib/gcc/pic32mx/3.4.4/../../../../pic32mx/lib/size\libmchp_peripheral_32MX795F512L.a(port_clear_bits_lib.o)
                                 0xe0 (size before relaxing)
 .debug_str     0x00001e43       0x95 C:/Program Files/Microchip/MPLAB C32/bin/../lib/gcc/pic32mx/3.4.4/../../../../pic32mx/lib/size\libmchp_peripheral_32MX795F512L.a(port_set_bits_lib.o)
                                 0xdc (size before relaxing)
 .debug_str     0x00001ed8       0xfe C:/Program Files/Microchip/MPLAB C32/bin/../lib/gcc/pic32mx/3.4.4/../../../../pic32mx/lib/size\libmchp_peripheral_32MX795F512L.a(uart_lib.o)
                                0x145 (size before relaxing)
 .debug_str     0x00001fd6       0xa0 C:/Program Files/Microchip/MPLAB C32/bin/../lib/gcc/pic32mx/3.4.4/../../../../pic32mx/lib/size\libmchp_peripheral_32MX795F512L.a(puts_uartx_lib_legacy.o)
                                 0xe7 (size before relaxing)
 .debug_str     0x00002076       0xa3 C:/Program Files/Microchip/MPLAB C32/bin/../lib/gcc/pic32mx/3.4.4/../../../../pic32mx/lib/size\libmchp_peripheral_32MX795F512L.a(int_enable_interrupts_lib.o)
                                 0xea (size before relaxing)

.debug_loc
 *(.debug_loc)

.debug_macinfo
 *(.debug_macinfo)

.debug_weaknames
 *(.debug_weaknames)

.debug_funcnames
 *(.debug_funcnames)

.debug_typenames
 *(.debug_typenames)

.debug_varnames
 *(.debug_varnames)
OUTPUT(Output Files\Projet Robot - Wifi.elf elf32-tradlittlemips)
